
 Start Length Name Class
 0001:00401000 0000C19C8H _TEXT                  CODE
 0002:004C3000 00003F900H _DATA                  DATA
 0003:00502900 00000E8F8H _BSS                   BSS
 0004:00000000 00000009CH _TLS                   TLS


Detailed map of segments
 0001:00000168 00000163 C=CODE    S=_TEXT    G=(none)   M=D:\DEVEL\BCC72\LIB\C0W32.OBJ ACBP=A9
 0001:000002CC 00000EA0 C=CODE    S=_TEXT    G=(none)   M=D:\DEVEL\XHARBOUR_BCC7\CONTRIB\GTWVG\WVTCLASS.OBJ ACBP=A9
 0001:0000116C 00004CE3 C=CODE    S=_TEXT    G=(none)   M=D:\DEVEL\XHARBOUR_BCC7\LIB\GTWVG.LIB|gtwvg ACBP=A9
 0001:00005E50 00006280 C=CODE    S=_TEXT    G=(none)   M=D:\DEVEL\XHARBOUR_BCC7\LIB\GTWVG.LIB|wvtcore ACBP=A9
 0001:0000C0D0 000031DA C=CODE    S=_TEXT    G=(none)   M=D:\DEVEL\XHARBOUR_BCC7\LIB\GTWVG.LIB|wvtutils ACBP=A9
 0001:0000F2AC 000003BC C=CODE    S=_TEXT    G=(none)   M=D:\DEVEL\XHARBOUR_BCC7\LIB\GTWVG.LIB|wvtpaint ACBP=A9
 0001:0000F668 00001D31 C=CODE    S=_TEXT    G=(none)   M=D:\DEVEL\XHARBOUR_BCC7\LIB\VM.LIB|arrays ACBP=A9
 0001:0001139C 000035EF C=CODE    S=_TEXT    G=(none)   M=D:\DEVEL\XHARBOUR_BCC7\LIB\VM.LIB|arrayshb ACBP=A9
 0001:0001498C 00000685 C=CODE    S=_TEXT    G=(none)   M=D:\DEVEL\XHARBOUR_BCC7\LIB\VM.LIB|asort ACBP=A9
 0001:00015014 00005AF3 C=CODE    S=_TEXT    G=(none)   M=D:\DEVEL\XHARBOUR_BCC7\LIB\VM.LIB|classes ACBP=A9
 0001:0001AB08 000002E1 C=CODE    S=_TEXT    G=(none)   M=D:\DEVEL\XHARBOUR_BCC7\LIB\VM.LIB|codebloc ACBP=A9
 0001:0001ADEC 00000794 C=CODE    S=_TEXT    G=(none)   M=D:\DEVEL\XHARBOUR_BCC7\LIB\VM.LIB|dynsym ACBP=A9
 0001:0001B580 00002195 C=CODE    S=_TEXT    G=(none)   M=D:\DEVEL\XHARBOUR_BCC7\LIB\VM.LIB|errorapi ACBP=A9
 0001:0001D718 00000B09 C=CODE    S=_TEXT    G=(none)   M=D:\DEVEL\XHARBOUR_BCC7\LIB\VM.LIB|estack ACBP=A9
 0001:0001E224 00000AB4 C=CODE    S=_TEXT    G=(none)   M=D:\DEVEL\XHARBOUR_BCC7\LIB\VM.LIB|eval ACBP=A9
 0001:0001ECD8 00001D6A C=CODE    S=_TEXT    G=(none)   M=D:\DEVEL\XHARBOUR_BCC7\LIB\VM.LIB|extend ACBP=A9
 0001:00020A44 000041D5 C=CODE    S=_TEXT    G=(none)   M=D:\DEVEL\XHARBOUR_BCC7\LIB\VM.LIB|fm ACBP=A9
 0001:00024C1C 00000EA0 C=CODE    S=_TEXT    G=(none)   M=D:\DEVEL\XHARBOUR_BCC7\LIB\VM.LIB|garbage ACBP=A9
 0001:00025ABC 000034E2 C=CODE    S=_TEXT    G=(none)   M=D:\DEVEL\XHARBOUR_BCC7\LIB\VM.LIB|hash ACBP=A9
 0001:00028FA0 000132B3 C=CODE    S=_TEXT    G=(none)   M=D:\DEVEL\XHARBOUR_BCC7\LIB\VM.LIB|hvm ACBP=A9
 0001:0003C254 00000030 C=CODE    S=_TEXT    G=(none)   M=D:\DEVEL\XHARBOUR_BCC7\LIB\VM.LIB|initexit ACBP=A9
 0001:0003C284 00002138 C=CODE    S=_TEXT    G=(none)   M=D:\DEVEL\XHARBOUR_BCC7\LIB\VM.LIB|itemapi ACBP=A9
 0001:0003E3BC 00000957 C=CODE    S=_TEXT    G=(none)   M=D:\DEVEL\XHARBOUR_BCC7\LIB\VM.LIB|fastitem ACBP=A9
 0001:0003ED14 00001CB4 C=CODE    S=_TEXT    G=(none)   M=D:\DEVEL\XHARBOUR_BCC7\LIB\VM.LIB|macro ACBP=A9
 0001:000409C8 00001E2E C=CODE    S=_TEXT    G=(none)   M=D:\DEVEL\XHARBOUR_BCC7\LIB\VM.LIB|memvars ACBP=A9
 0001:000427F8 0000002B C=CODE    S=_TEXT    G=(none)   M=D:\DEVEL\XHARBOUR_BCC7\LIB\VM.LIB|pcount ACBP=A9
 0001:00042824 00000355 C=CODE    S=_TEXT    G=(none)   M=D:\DEVEL\XHARBOUR_BCC7\LIB\VM.LIB|proc ACBP=A9
 0001:00042B7C 00004C22 C=CODE    S=_TEXT    G=(none)   M=D:\DEVEL\XHARBOUR_BCC7\LIB\VM.LIB|set ACBP=A9
 0001:000477A0 00000268 C=CODE    S=_TEXT    G=(none)   M=D:\DEVEL\XHARBOUR_BCC7\LIB\VM.LIB|thread ACBP=A9
 0001:00047A08 000005CF C=CODE    S=_TEXT    G=(none)   M=D:\DEVEL\XHARBOUR_BCC7\LIB\VM.LIB|cmdarg ACBP=A9
 0001:00047FD8 000011C9 C=CODE    S=_TEXT    G=(none)   M=D:\DEVEL\XHARBOUR_BCC7\LIB\VM.LIB|hbi18n ACBP=A9
 0001:000491A4 00000014 C=CODE    S=_TEXT    G=(none)   M=D:\DEVEL\XHARBOUR_BCC7\LIB\VM.LIB|break ACBP=A9
 0001:000491B8 00000019 C=CODE    S=_TEXT    G=(none)   M=D:\DEVEL\XHARBOUR_BCC7\LIB\VM.LIB|initsymb ACBP=A9
 0001:000491D4 00000076 C=CODE    S=_TEXT    G=(none)   M=D:\DEVEL\XHARBOUR_BCC7\LIB\VM.LIB|throw ACBP=A9
 0001:0004924C 00000100 C=CODE    S=_TEXT    G=(none)   M=D:\DEVEL\XHARBOUR_BCC7\LIB\VM.LIB|harbinit ACBP=A9
 0001:0004934C 0000004C C=CODE    S=_TEXT    G=(none)   M=D:\DEVEL\XHARBOUR_BCC7\LIB\VM.LIB|errlogmt ACBP=A9
 0001:00049398 00000674 C=CODE    S=_TEXT    G=(none)   M=D:\DEVEL\XHARBOUR_BCC7\LIB\VM.LIB|bkgtsks ACBP=A9
 0001:00049A0C 0000012C C=CODE    S=_TEXT    G=(none)   M=D:\DEVEL\XHARBOUR_BCC7\LIB\VM.LIB|mainwin ACBP=A9
 0001:00049B38 000001BC C=CODE    S=_TEXT    G=(none)   M=D:\DEVEL\XHARBOUR_BCC7\LIB\RTL.LIB|abs ACBP=A9
 0001:00049CF4 00000497 C=CODE    S=_TEXT    G=(none)   M=D:\DEVEL\XHARBOUR_BCC7\LIB\RTL.LIB|at ACBP=A9
 0001:0004A18C 0000026D C=CODE    S=_TEXT    G=(none)   M=D:\DEVEL\XHARBOUR_BCC7\LIB\RTL.LIB|box ACBP=A9
 0001:0004A3FC 000025C6 C=CODE    S=_TEXT    G=(none)   M=D:\DEVEL\XHARBOUR_BCC7\LIB\RTL.LIB|cdpapi ACBP=A9
 0001:0004C9C4 000000AF C=CODE    S=_TEXT    G=(none)   M=D:\DEVEL\XHARBOUR_BCC7\LIB\RTL.LIB|chrasc ACBP=A9
 0001:0004CA74 000000D5 C=CODE    S=_TEXT    G=(none)   M=D:\DEVEL\XHARBOUR_BCC7\LIB\RTL.LIB|colorind ACBP=A9
 0001:0004CB4C 00000B75 C=CODE    S=_TEXT    G=(none)   M=D:\DEVEL\XHARBOUR_BCC7\LIB\RTL.LIB|console ACBP=A9
 0001:0004D6C4 00000167 C=CODE    S=_TEXT    G=(none)   M=D:\DEVEL\XHARBOUR_BCC7\LIB\RTL.LIB|datec ACBP=A9
 0001:0004D82C 000011E7 C=CODE    S=_TEXT    G=(none)   M=D:\DEVEL\XHARBOUR_BCC7\LIB\RTL.LIB|dateshb ACBP=A9
 0001:0004EA14 0000054A C=CODE    S=_TEXT    G=(none)   M=D:\DEVEL\XHARBOUR_BCC7\LIB\RTL.LIB|dirdrive ACBP=A9
 0001:0004EF60 000001CC C=CODE    S=_TEXT    G=(none)   M=D:\DEVEL\XHARBOUR_BCC7\LIB\RTL.LIB|diskspac ACBP=A9
 0001:0004F12C 00000254 C=CODE    S=_TEXT    G=(none)   M=D:\DEVEL\XHARBOUR_BCC7\LIB\RTL.LIB|empty ACBP=A9
 0001:0004F380 00000154 C=CODE    S=_TEXT    G=(none)   M=D:\DEVEL\XHARBOUR_BCC7\LIB\RTL.LIB|file ACBP=A9
 0001:0004F4D4 00000C39 C=CODE    S=_TEXT    G=(none)   M=D:\DEVEL\XHARBOUR_BCC7\LIB\RTL.LIB|filebuf ACBP=A9
 0001:00050110 00000074 C=CODE    S=_TEXT    G=(none)   M=D:\DEVEL\XHARBOUR_BCC7\LIB\RTL.LIB|filehb ACBP=A9
 0001:00050184 00001D92 C=CODE    S=_TEXT    G=(none)   M=D:\DEVEL\XHARBOUR_BCC7\LIB\RTL.LIB|filesys ACBP=A9
 0001:00051F18 000000D5 C=CODE    S=_TEXT    G=(none)   M=D:\DEVEL\XHARBOUR_BCC7\LIB\RTL.LIB|fserror ACBP=A9
 0001:00051FF0 000000D0 C=CODE    S=_TEXT    G=(none)   M=D:\DEVEL\XHARBOUR_BCC7\LIB\RTL.LIB|fnsplit ACBP=A9
 0001:000520C0 00000996 C=CODE    S=_TEXT    G=(none)   M=D:\DEVEL\XHARBOUR_BCC7\LIB\RTL.LIB|fparse ACBP=A9
 0001:00052A58 00000107 C=CODE    S=_TEXT    G=(none)   M=D:\DEVEL\XHARBOUR_BCC7\LIB\RTL.LIB|fssize ACBP=A9
 0001:00052B60 000003EF C=CODE    S=_TEXT    G=(none)   M=D:\DEVEL\XHARBOUR_BCC7\LIB\RTL.LIB|fstemp ACBP=A9
 0001:00052F50 00000028 C=CODE    S=_TEXT    G=(none)   M=D:\DEVEL\XHARBOUR_BCC7\LIB\RTL.LIB|gt ACBP=A9
 0001:00052F78 00000F46 C=CODE    S=_TEXT    G=(none)   M=D:\DEVEL\XHARBOUR_BCC7\LIB\RTL.LIB|gtapi ACBP=A9
 0001:00053EC0 000002B7 C=CODE    S=_TEXT    G=(none)   M=D:\DEVEL\XHARBOUR_BCC7\LIB\RTL.LIB|gtclip ACBP=A9
 0001:00054178 0000042E C=CODE    S=_TEXT    G=(none)   M=D:\DEVEL\XHARBOUR_BCC7\LIB\RTL.LIB|gtfunc ACBP=A9
 0001:000545A8 00000224 C=CODE    S=_TEXT    G=(none)   M=D:\DEVEL\XHARBOUR_BCC7\LIB\RTL.LIB|gtkbstat ACBP=A9
 0001:000547CC 00000284 C=CODE    S=_TEXT    G=(none)   M=D:\DEVEL\XHARBOUR_BCC7\LIB\RTL.LIB|gttone ACBP=A9
 0001:00054A50 00000001 C=CODE    S=_TEXT    G=(none)   M=D:\DEVEL\XHARBOUR_BCC7\LIB\RTL.LIB|gtsys ACBP=A9
 0001:00054A54 000000C7 C=CODE    S=_TEXT    G=(none)   M=D:\DEVEL\XHARBOUR_BCC7\LIB\RTL.LIB|gx ACBP=A9
 0001:00054B1C 00000496 C=CODE    S=_TEXT    G=(none)   M=D:\DEVEL\XHARBOUR_BCC7\LIB\RTL.LIB|hbbitf ACBP=A9
 0001:00054FB4 000007F7 C=CODE    S=_TEXT    G=(none)   M=D:\DEVEL\XHARBOUR_BCC7\LIB\RTL.LIB|hbserv ACBP=A9
 0001:000557AC 000007F9 C=CODE    S=_TEXT    G=(none)   M=D:\DEVEL\XHARBOUR_BCC7\LIB\RTL.LIB|hbffind ACBP=A9
 0001:00055FA8 00003D71 C=CODE    S=_TEXT    G=(none)   M=D:\DEVEL\XHARBOUR_BCC7\LIB\RTL.LIB|hbgtcore ACBP=A9
 0001:00059D1C 00000489 C=CODE    S=_TEXT    G=(none)   M=D:\DEVEL\XHARBOUR_BCC7\LIB\RTL.LIB|hbhex2n ACBP=A9
 0001:0005A1A8 000002DC C=CODE    S=_TEXT    G=(none)   M=D:\DEVEL\XHARBOUR_BCC7\LIB\RTL.LIB|hbrandom ACBP=A9
 0001:0005A484 0000062A C=CODE    S=_TEXT    G=(none)   M=D:\DEVEL\XHARBOUR_BCC7\LIB\RTL.LIB|hbtoken ACBP=A9
 0001:0005AAB0 0000047E C=CODE    S=_TEXT    G=(none)   M=D:\DEVEL\XHARBOUR_BCC7\LIB\RTL.LIB|idle ACBP=A9
 0001:0005AF30 00000487 C=CODE    S=_TEXT    G=(none)   M=D:\DEVEL\XHARBOUR_BCC7\LIB\RTL.LIB|inkey ACBP=A9
 0001:0005B3B8 00000119 C=CODE    S=_TEXT    G=(none)   M=D:\DEVEL\XHARBOUR_BCC7\LIB\RTL.LIB|inkeyapi ACBP=A9
 0001:0005B4D4 0000049E C=CODE    S=_TEXT    G=(none)   M=D:\DEVEL\XHARBOUR_BCC7\LIB\RTL.LIB|is ACBP=A9
 0001:0005B974 0000029F C=CODE    S=_TEXT    G=(none)   M=D:\DEVEL\XHARBOUR_BCC7\LIB\RTL.LIB|langapi ACBP=A9
 0001:0005BC14 000000CC C=CODE    S=_TEXT    G=(none)   M=D:\DEVEL\XHARBOUR_BCC7\LIB\RTL.LIB|left ACBP=A9
 0001:0005BCE0 00000093 C=CODE    S=_TEXT    G=(none)   M=D:\DEVEL\XHARBOUR_BCC7\LIB\RTL.LIB|len ACBP=A9
 0001:0005BD74 00000A80 C=CODE    S=_TEXT    G=(none)   M=D:\DEVEL\XHARBOUR_BCC7\LIB\RTL.LIB|math ACBP=A9
 0001:0005C7F4 0000014F C=CODE    S=_TEXT    G=(none)   M=D:\DEVEL\XHARBOUR_BCC7\LIB\RTL.LIB|maxrow ACBP=A9
 0001:0005C944 000006A6 C=CODE    S=_TEXT    G=(none)   M=D:\DEVEL\XHARBOUR_BCC7\LIB\RTL.LIB|minmax ACBP=A9
 0001:0005CFEC 00000292 C=CODE    S=_TEXT    G=(none)   M=D:\DEVEL\XHARBOUR_BCC7\LIB\RTL.LIB|mouseapi ACBP=A9
 0001:0005D280 000002E5 C=CODE    S=_TEXT    G=(none)   M=D:\DEVEL\XHARBOUR_BCC7\LIB\RTL.LIB|mouse53 ACBP=A9
 0001:0005D568 00000180 C=CODE    S=_TEXT    G=(none)   M=D:\DEVEL\XHARBOUR_BCC7\LIB\RTL.LIB|natmsg ACBP=A9
 0001:0005D6E8 00000071 C=CODE    S=_TEXT    G=(none)   M=D:\DEVEL\XHARBOUR_BCC7\LIB\RTL.LIB|net ACBP=A9
 0001:0005D75C 00000006 C=CODE    S=_TEXT    G=(none)   M=D:\DEVEL\XHARBOUR_BCC7\LIB\RTL.LIB|pad ACBP=A9
 0001:0005D764 00000141 C=CODE    S=_TEXT    G=(none)   M=D:\DEVEL\XHARBOUR_BCC7\LIB\RTL.LIB|padc ACBP=A9
 0001:0005D8A8 0000010F C=CODE    S=_TEXT    G=(none)   M=D:\DEVEL\XHARBOUR_BCC7\LIB\RTL.LIB|padl ACBP=A9
 0001:0005D9B8 00000108 C=CODE    S=_TEXT    G=(none)   M=D:\DEVEL\XHARBOUR_BCC7\LIB\RTL.LIB|padr ACBP=A9
 0001:0005DAC0 00000CEE C=CODE    S=_TEXT    G=(none)   M=D:\DEVEL\XHARBOUR_BCC7\LIB\RTL.LIB|philes ACBP=A9
 0001:0005E7B0 000000F8 C=CODE    S=_TEXT    G=(none)   M=D:\DEVEL\XHARBOUR_BCC7\LIB\RTL.LIB|rat ACBP=A9
 0001:0005E8A8 0000012F C=CODE    S=_TEXT    G=(none)   M=D:\DEVEL\XHARBOUR_BCC7\LIB\RTL.LIB|replic ACBP=A9
 0001:0005E9D8 00000093 C=CODE    S=_TEXT    G=(none)   M=D:\DEVEL\XHARBOUR_BCC7\LIB\RTL.LIB|right ACBP=A9
 0001:0005EA6C 00000132 C=CODE    S=_TEXT    G=(none)   M=D:\DEVEL\XHARBOUR_BCC7\LIB\RTL.LIB|round ACBP=A9
 0001:0005EBA0 000001FC C=CODE    S=_TEXT    G=(none)   M=D:\DEVEL\XHARBOUR_BCC7\LIB\RTL.LIB|samples ACBP=A9
 0001:0005ED9C 000001D4 C=CODE    S=_TEXT    G=(none)   M=D:\DEVEL\XHARBOUR_BCC7\LIB\RTL.LIB|saverest ACBP=A9
 0001:0005EF70 00000271 C=CODE    S=_TEXT    G=(none)   M=D:\DEVEL\XHARBOUR_BCC7\LIB\RTL.LIB|scroll ACBP=A9
 0001:0005F1E4 000002CC C=CODE    S=_TEXT    G=(none)   M=D:\DEVEL\XHARBOUR_BCC7\LIB\RTL.LIB|seconds ACBP=A9
 0001:0005F4B0 000011EA C=CODE    S=_TEXT    G=(none)   M=D:\DEVEL\XHARBOUR_BCC7\LIB\RTL.LIB|regex ACBP=A9
 0001:0006069C 00000155 C=CODE    S=_TEXT    G=(none)   M=D:\DEVEL\XHARBOUR_BCC7\LIB\RTL.LIB|setcolor ACBP=A9
 0001:000607F4 00000064 C=CODE    S=_TEXT    G=(none)   M=D:\DEVEL\XHARBOUR_BCC7\LIB\RTL.LIB|setcurs ACBP=A9
 0001:00060858 0000059D C=CODE    S=_TEXT    G=(none)   M=D:\DEVEL\XHARBOUR_BCC7\LIB\RTL.LIB|setkey ACBP=A9
 0001:00060DF8 0000008D C=CODE    S=_TEXT    G=(none)   M=D:\DEVEL\XHARBOUR_BCC7\LIB\RTL.LIB|setpos ACBP=A9
 0001:00060E88 0000002A C=CODE    S=_TEXT    G=(none)   M=D:\DEVEL\XHARBOUR_BCC7\LIB\RTL.LIB|setposbs ACBP=A9
 0001:00060EB4 00000086 C=CODE    S=_TEXT    G=(none)   M=D:\DEVEL\XHARBOUR_BCC7\LIB\RTL.LIB|space ACBP=A9
 0001:00060F3C 000002FA C=CODE    S=_TEXT    G=(none)   M=D:\DEVEL\XHARBOUR_BCC7\LIB\RTL.LIB|spfiles ACBP=A9
 0001:00061238 0000023D C=CODE    S=_TEXT    G=(none)   M=D:\DEVEL\XHARBOUR_BCC7\LIB\RTL.LIB|str ACBP=A9
 0001:00061478 00000336 C=CODE    S=_TEXT    G=(none)   M=D:\DEVEL\XHARBOUR_BCC7\LIB\RTL.LIB|strcase ACBP=A9
 0001:000617B0 00000141 C=CODE    S=_TEXT    G=(none)   M=D:\DEVEL\XHARBOUR_BCC7\LIB\RTL.LIB|strdel ACBP=A9
 0001:000618F4 00000035 C=CODE    S=_TEXT    G=(none)   M=D:\DEVEL\XHARBOUR_BCC7\LIB\RTL.LIB|strings ACBP=A9
 0001:0006192C 0000068D C=CODE    S=_TEXT    G=(none)   M=D:\DEVEL\XHARBOUR_BCC7\LIB\RTL.LIB|strmatch ACBP=A9
 0001:00061FBC 00000324 C=CODE    S=_TEXT    G=(none)   M=D:\DEVEL\XHARBOUR_BCC7\LIB\RTL.LIB|strtran ACBP=A9
 0001:000622E0 00000143 C=CODE    S=_TEXT    G=(none)   M=D:\DEVEL\XHARBOUR_BCC7\LIB\RTL.LIB|strzero ACBP=A9
 0001:00062424 0000017E C=CODE    S=_TEXT    G=(none)   M=D:\DEVEL\XHARBOUR_BCC7\LIB\RTL.LIB|stuff ACBP=A9
 0001:000625A4 00000153 C=CODE    S=_TEXT    G=(none)   M=D:\DEVEL\XHARBOUR_BCC7\LIB\RTL.LIB|substr ACBP=A9
 0001:000626F8 00001174 C=CODE    S=_TEXT    G=(none)   M=D:\DEVEL\XHARBOUR_BCC7\LIB\RTL.LIB|tprinter ACBP=A9
 0001:0006386C 000001B0 C=CODE    S=_TEXT    G=(none)   M=D:\DEVEL\XHARBOUR_BCC7\LIB\RTL.LIB|trace ACBP=A9
 0001:00063A1C 00001D00 C=CODE    S=_TEXT    G=(none)   M=D:\DEVEL\XHARBOUR_BCC7\LIB\RTL.LIB|transfrm ACBP=A9
 0001:0006571C 0000025E C=CODE    S=_TEXT    G=(none)   M=D:\DEVEL\XHARBOUR_BCC7\LIB\RTL.LIB|trim ACBP=A9
 0001:0006597C 00000077 C=CODE    S=_TEXT    G=(none)   M=D:\DEVEL\XHARBOUR_BCC7\LIB\RTL.LIB|type ACBP=A9
 0001:000659F4 0000009D C=CODE    S=_TEXT    G=(none)   M=D:\DEVEL\XHARBOUR_BCC7\LIB\RTL.LIB|val ACBP=A9
 0001:00065A94 0000042E C=CODE    S=_TEXT    G=(none)   M=D:\DEVEL\XHARBOUR_BCC7\LIB\RTL.LIB|valtype ACBP=A9
 0001:00065EC4 00000394 C=CODE    S=_TEXT    G=(none)   M=D:\DEVEL\XHARBOUR_BCC7\LIB\RTL.LIB|version ACBP=A9
 0001:00066258 0000004A C=CODE    S=_TEXT    G=(none)   M=D:\DEVEL\XHARBOUR_BCC7\LIB\RTL.LIB|word ACBP=A9
 0001:000662A4 0000005C C=CODE    S=_TEXT    G=(none)   M=D:\DEVEL\XHARBOUR_BCC7\LIB\RTL.LIB|xhelp ACBP=A9
 0001:00066300 000000E4 C=CODE    S=_TEXT    G=(none)   M=D:\DEVEL\XHARBOUR_BCC7\LIB\RTL.LIB|xsavescr ACBP=A9
 0001:000663E4 00000074 C=CODE    S=_TEXT    G=(none)   M=D:\DEVEL\XHARBOUR_BCC7\LIB\RTL.LIB|alert ACBP=A9
 0001:00066458 00000150 C=CODE    S=_TEXT    G=(none)   M=D:\DEVEL\XHARBOUR_BCC7\LIB\RTL.LIB|color53 ACBP=A9
 0001:000665A8 00000164 C=CODE    S=_TEXT    G=(none)   M=D:\DEVEL\XHARBOUR_BCC7\LIB\RTL.LIB|cstr ACBP=A9
 0001:0006670C 0000020B C=CODE    S=_TEXT    G=(none)   M=D:\DEVEL\XHARBOUR_BCC7\LIB\RTL.LIB|errorsys ACBP=A9
 0001:00066918 00000088 C=CODE    S=_TEXT    G=(none)   M=D:\DEVEL\XHARBOUR_BCC7\LIB\RTL.LIB|getlist ACBP=A9
 0001:000669A0 00000204 C=CODE    S=_TEXT    G=(none)   M=D:\DEVEL\XHARBOUR_BCC7\LIB\RTL.LIB|getsys ACBP=A9
 0001:00066BA4 0000004C C=CODE    S=_TEXT    G=(none)   M=D:\DEVEL\XHARBOUR_BCC7\LIB\RTL.LIB|memvarbl ACBP=A9
 0001:00066BF0 00000100 C=CODE    S=_TEXT    G=(none)   M=D:\DEVEL\XHARBOUR_BCC7\LIB\RTL.LIB|mssgline ACBP=A9
 0001:00066CF0 000001DC C=CODE    S=_TEXT    G=(none)   M=D:\DEVEL\XHARBOUR_BCC7\LIB\RTL.LIB|objfunc ACBP=A9
 0001:00066ECC 00000690 C=CODE    S=_TEXT    G=(none)   M=D:\DEVEL\XHARBOUR_BCC7\LIB\RTL.LIB|tbrowse ACBP=A9
 0001:0006755C 00000204 C=CODE    S=_TEXT    G=(none)   M=D:\DEVEL\XHARBOUR_BCC7\LIB\RTL.LIB|tclass ACBP=A9
 0001:00067760 000003D4 C=CODE    S=_TEXT    G=(none)   M=D:\DEVEL\XHARBOUR_BCC7\LIB\RTL.LIB|tget ACBP=A9
 0001:00067B34 00000074 C=CODE    S=_TEXT    G=(none)   M=D:\DEVEL\XHARBOUR_BCC7\LIB\RTL.LIB|tgetint ACBP=A9
 0001:00067BA8 00000258 C=CODE    S=_TEXT    G=(none)   M=D:\DEVEL\XHARBOUR_BCC7\LIB\RTL.LIB|tgetlist ACBP=A9
 0001:00067E00 000001A3 C=CODE    S=_TEXT    G=(none)   M=D:\DEVEL\XHARBOUR_BCC7\LIB\RTL.LIB|tobject ACBP=A9
 0001:00067FA4 00000060 C=CODE    S=_TEXT    G=(none)   M=D:\DEVEL\XHARBOUR_BCC7\LIB\RTL.LIB|traceprg ACBP=A9
 0001:00068004 0000026E C=CODE    S=_TEXT    G=(none)   M=D:\DEVEL\XHARBOUR_BCC7\LIB\RTL.LIB|tscalar ACBP=A9
 0001:00068274 00002A35 C=CODE    S=_TEXT    G=(none)   M=D:\DEVEL\XHARBOUR_BCC7\LIB\MACRO.LIB|macroy ACBP=A9
 0001:0006ACAC 00000359 C=CODE    S=_TEXT    G=(none)   M=D:\DEVEL\XHARBOUR_BCC7\LIB\MACRO.LIB|macroa ACBP=A9
 0001:0006B008 00005D7D C=CODE    S=_TEXT    G=(none)   M=D:\DEVEL\XHARBOUR_BCC7\LIB\MACRO.LIB|macrob ACBP=A9
 0001:00070D88 000008B4 C=CODE    S=_TEXT    G=(none)   M=D:\DEVEL\XHARBOUR_BCC7\LIB\MACRO.LIB|macroc ACBP=A9
 0001:0007163C 00002369 C=CODE    S=_TEXT    G=(none)   M=D:\DEVEL\XHARBOUR_BCC7\LIB\MACRO.LIB|macroslx ACBP=A9
 0001:000739A8 0000003F C=CODE    S=_TEXT    G=(none)   M=D:\DEVEL\XHARBOUR_BCC7\LIB\COMMON.LIB|hbfopen ACBP=A9
 0001:000739E8 000003DF C=CODE    S=_TEXT    G=(none)   M=D:\DEVEL\XHARBOUR_BCC7\LIB\COMMON.LIB|hbfsapi ACBP=A9
 0001:00073DC8 000000F7 C=CODE    S=_TEXT    G=(none)   M=D:\DEVEL\XHARBOUR_BCC7\LIB\COMMON.LIB|hbgete ACBP=A9
 0001:00073EC0 000005CA C=CODE    S=_TEXT    G=(none)   M=D:\DEVEL\XHARBOUR_BCC7\LIB\COMMON.LIB|hbmem ACBP=A9
 0001:0007448C 0000169E C=CODE    S=_TEXT    G=(none)   M=D:\DEVEL\XHARBOUR_BCC7\LIB\COMMON.LIB|hbstr ACBP=A9
 0001:00075B2C 00001AA1 C=CODE    S=_TEXT    G=(none)   M=D:\DEVEL\XHARBOUR_BCC7\LIB\COMMON.LIB|hbprintf ACBP=A9
 0001:000775D0 00000226 C=CODE    S=_TEXT    G=(none)   M=D:\DEVEL\XHARBOUR_BCC7\LIB\COMMON.LIB|hbtrace ACBP=A9
 0001:000777F8 00001056 C=CODE    S=_TEXT    G=(none)   M=D:\DEVEL\XHARBOUR_BCC7\LIB\COMMON.LIB|hbver ACBP=A9
 0001:00078850 00000B1A C=CODE    S=_TEXT    G=(none)   M=D:\DEVEL\XHARBOUR_BCC7\LIB\COMMON.LIB|expropt1 ACBP=A9
 0001:0007936C 00001645 C=CODE    S=_TEXT    G=(none)   M=D:\DEVEL\XHARBOUR_BCC7\LIB\COMMON.LIB|expropt2 ACBP=A9
 0001:0007A9B4 00000060 C=CODE    S=_TEXT    G=(none)   M=D:\DEVEL\XHARBOUR_BCC7\LIB\COMMON.LIB|reserved ACBP=A9
 0001:0007AA14 00001919 C=CODE    S=_TEXT    G=(none)   M=D:\DEVEL\XHARBOUR_BCC7\LIB\COMMON.LIB|hbdate ACBP=A9
 0001:0007C330 00000181 C=CODE    S=_TEXT    G=(none)   M=D:\DEVEL\XHARBOUR_BCC7\LIB\COMMON.LIB|hbwince ACBP=A9
 0001:0007C4B4 00000010 C=CODE    S=_TEXT    G=(none)   M=D:\DEVEL\XHARBOUR_BCC7\LIB\LANG.LIB|msgen ACBP=A9
 0001:0007C4C4 000037F3 C=CODE    S=_TEXT    G=(none)   M=D:\DEVEL\XHARBOUR_BCC7\LIB\RDD.LIB|dbcmd ACBP=A9
 0001:0007FCB8 00000C62 C=CODE    S=_TEXT    G=(none)   M=D:\DEVEL\XHARBOUR_BCC7\LIB\RDD.LIB|dbcmd53 ACBP=A9
 0001:0008091C 000025FE C=CODE    S=_TEXT    G=(none)   M=D:\DEVEL\XHARBOUR_BCC7\LIB\RDD.LIB|workarea ACBP=A9
 0001:00082F1C 0000086B C=CODE    S=_TEXT    G=(none)   M=D:\DEVEL\XHARBOUR_BCC7\LIB\RDD.LIB|wacore ACBP=A9
 0001:00083788 000014B3 C=CODE    S=_TEXT    G=(none)   M=D:\DEVEL\XHARBOUR_BCC7\LIB\RDD.LIB|wafunc ACBP=A9
 0001:00084C3C 00008504 C=CODE    S=_TEXT    G=(none)   M=D:\DEVEL\XHARBOUR_BCC7\LIB\RDD.LIB|dbf1 ACBP=A9
 0001:0008D140 000006AB C=CODE    S=_TEXT    G=(none)   M=D:\DEVEL\XHARBOUR_BCC7\LIB\RDD.LIB|hbdbsort ACBP=A9
 0001:0008D7EC 000000D8 C=CODE    S=_TEXT    G=(none)   M=D:\DEVEL\XHARBOUR_BCC7\LIB\RDD.LIB|rddord ACBP=A9
 0001:0008D8C4 0000004C C=CODE    S=_TEXT    G=(none)   M=D:\DEVEL\XHARBOUR_BCC7\LIB\RDD.LIB|rddsys ACBP=A9
 0001:0008D910 0000ABE4 C=CODE    S=_TEXT    G=(none)   M=D:\DEVEL\XHARBOUR_BCC7\LIB\DBFNTX.LIB|dbfntx1 ACBP=A9
 0001:000984F4 000076A4 C=CODE    S=_TEXT    G=(none)   M=D:\DEVEL\XHARBOUR_BCC7\LIB\DBFFPT.LIB|dbffpt1 ACBP=A9
 0001:0009FB98 00007DF8 C=CODE    S=_TEXT    G=(none)   M=D:\DEVEL\XHARBOUR_BCC7\LIB\PCREPOS.LIB|pcre_compile ACBP=A9
 0001:000A7990 0000B8A8 C=CODE    S=_TEXT    G=(none)   M=D:\DEVEL\XHARBOUR_BCC7\LIB\PCREPOS.LIB|pcre_exec ACBP=A9
 0001:000B3238 0000025E C=CODE    S=_TEXT    G=(none)   M=D:\DEVEL\XHARBOUR_BCC7\LIB\PCREPOS.LIB|pcre_fullinfo ACBP=A9
 0001:000B3498 000003E6 C=CODE    S=_TEXT    G=(none)   M=D:\DEVEL\XHARBOUR_BCC7\LIB\PCREPOS.LIB|pcre_newline ACBP=A9
 0001:000B3880 0000004F C=CODE    S=_TEXT    G=(none)   M=D:\DEVEL\XHARBOUR_BCC7\LIB\PCREPOS.LIB|pcre_ord2utf8 ACBP=A9
 0001:000B38D0 00000474 C=CODE    S=_TEXT    G=(none)   M=D:\DEVEL\XHARBOUR_BCC7\LIB\PCREPOS.LIB|pcre_valid_utf8 ACBP=A9
 0001:000B3D44 00000016 C=CODE    S=_TEXT    G=(none)   M=D:\DEVEL\XHARBOUR_BCC7\LIB\PCREPOS.LIB|pcre_version ACBP=A9
 0001:000B3D5C 00000411 C=CODE    S=_TEXT    G=(none)   M=D:\DEVEL\XHARBOUR_BCC7\LIB\PCREPOS.LIB|pcre_xclass ACBP=A9
 0001:000B4170 000003C5 C=CODE    S=_TEXT    G=(none)   M=D:\DEVEL\XHARBOUR_BCC7\LIB\PCREPOS.LIB|pcreposix ACBP=A9
 0001:000B4538 000003BF C=CODE    S=_TEXT    G=(none)   M=D:\DEVEL\XHARBOUR_BCC7\LIB\HBSIX.LIB|sxcrypt ACBP=A9
 0001:000B48F8 000000F8 C=CODE    S=_TEXT    G=(none)   M=D:\DEVEL\XHARBOUR_BCC7\LIB\HBSIX.LIB|sxdate ACBP=A9
 0001:000B49F0 00000028 C=CODE    S=_TEXT    G=(none)   M=D:\DEVEL\BCC72\LIB\CW32.LIB|delaop ACBP=A9
 0001:000B4A18 0000002E C=CODE    S=_TEXT    G=(none)   M=D:\DEVEL\BCC72\LIB\CW32.LIB|delop ACBP=A9
 0001:000B4A48 0000004E C=CODE    S=_TEXT    G=(none)   M=D:\DEVEL\BCC72\LIB\CW32.LIB|exceptio ACBP=A9
 0001:000B4A7D 0000009B C=CODE    S=_TEXT    G=(none)   M=D:\DEVEL\BCC72\LIB\CW32.LIB|gccex ACBP=A9
 0001:000B4B18 00000112 C=CODE    S=_TEXT    G=(none)   M=D:\DEVEL\BCC72\LIB\CW32.LIB|inst ACBP=A9
 0001:000B4C04 0000014B C=CODE    S=_TEXT    G=(none)   M=D:\DEVEL\BCC72\LIB\CW32.LIB|hrdir_b ACBP=A9
 0001:000B4D50 00000020 C=CODE    S=_TEXT    G=(none)   M=D:\DEVEL\BCC72\LIB\CW32.LIB|hrdir_mf ACBP=A9
 0001:000B4D70 000000DC C=CODE    S=_TEXT    G=(none)   M=D:\DEVEL\BCC72\LIB\CW32.LIB|hrdir_s ACBP=A9
 0001:000B4E4C 00000001 C=CODE    S=_TEXT    G=(none)   M=D:\DEVEL\BCC72\LIB\CW32.LIB|hrdir_us ACBP=A9
 0001:000B4E50 00000DC2 C=CODE    S=_TEXT    G=(none)   M=D:\DEVEL\BCC72\LIB\CW32.LIB|_fastmm ACBP=A9
 0001:000B5C14 00000B42 C=CODE    S=_TEXT    G=(none)   M=D:\DEVEL\BCC72\LIB\CW32.LIB|_fastmma ACBP=A9
 0001:000B6758 0000004A C=CODE    S=_TEXT    G=(none)   M=D:\DEVEL\BCC72\LIB\CW32.LIB|heap ACBP=A9
 0001:000B67A4 00000065 C=CODE    S=_TEXT    G=(none)   M=D:\DEVEL\BCC72\LIB\CW32.LIB|realloc ACBP=A9
 0001:000B680C 00000001 C=CODE    S=_TEXT    G=(none)   M=D:\DEVEL\BCC72\LIB\CW32.LIB|crtlst_i ACBP=A9
 0001:000B6810 00000001 C=CODE    S=_TEXT    G=(none)   M=D:\DEVEL\BCC72\LIB\CW32.LIB|crtlst_l ACBP=A9
 0001:000B6814 00000032 C=CODE    S=_TEXT    G=(none)   M=D:\DEVEL\BCC72\LIB\CW32.LIB|strdup ACBP=A9
 0001:000B6848 000000A3 C=CODE    S=_TEXT    G=(none)   M=D:\DEVEL\BCC72\LIB\CW32.LIB|strerror ACBP=A9
 0001:000B68EC 0000004F C=CODE    S=_TEXT    G=(none)   M=D:\DEVEL\BCC72\LIB\CW32.LIB|strncpy ACBP=A9
 0001:000B693C 0000002D C=CODE    S=_TEXT    G=(none)   M=D:\DEVEL\BCC72\LIB\CW32.LIB|strpbrk ACBP=A9
 0001:000B696C 00000029 C=CODE    S=_TEXT    G=(none)   M=D:\DEVEL\BCC72\LIB\CW32.LIB|strrchr ACBP=A9
 0001:000B6998 00000060 C=CODE    S=_TEXT    G=(none)   M=D:\DEVEL\BCC72\LIB\CW32.LIB|strstr ACBP=A9
 0001:000B69F8 0000003F C=CODE    S=_TEXT    G=(none)   M=D:\DEVEL\BCC72\LIB\CW32.LIB|wcscpy ACBP=A9
 0001:000B6A38 00000018 C=CODE    S=_TEXT    G=(none)   M=D:\DEVEL\BCC72\LIB\CW32.LIB|wcslen ACBP=A9
 0001:000B6A50 00000037 C=CODE    S=_TEXT    G=(none)   M=D:\DEVEL\BCC72\LIB\CW32.LIB|_stpcpy ACBP=A9
 0001:000B6A88 00000055 C=CODE    S=_TEXT    G=(none)   M=D:\DEVEL\BCC72\LIB\CW32.LIB|memchr ACBP=A9
 0001:000B6AE0 0000006C C=CODE    S=_TEXT    G=(none)   M=D:\DEVEL\BCC72\LIB\CW32.LIB|memcmp ACBP=A9
 0001:000B6B4C 00000016 C=CODE    S=_TEXT    G=(none)   M=D:\DEVEL\BCC72\LIB\CW32.LIB|memcpy ACBP=A9
 0001:000B6B64 00000117 C=CODE    S=_TEXT    G=(none)   M=D:\DEVEL\BCC72\LIB\CW32.LIB|memmove ACBP=A9
 0001:000B6C7C 000000B3 C=CODE    S=_TEXT    G=(none)   M=D:\DEVEL\BCC72\LIB\CW32.LIB|memset ACBP=A9
 0001:000B6D30 0000005D C=CODE    S=_TEXT    G=(none)   M=D:\DEVEL\BCC72\LIB\CW32.LIB|strcat ACBP=A9
 0001:000B6D90 0000004E C=CODE    S=_TEXT    G=(none)   M=D:\DEVEL\BCC72\LIB\CW32.LIB|strchr ACBP=A9
 0001:000B6DE0 0000005A C=CODE    S=_TEXT    G=(none)   M=D:\DEVEL\BCC72\LIB\CW32.LIB|strlen ACBP=A9
 0001:000B6E3C 0000007A C=CODE    S=_TEXT    G=(none)   M=D:\DEVEL\BCC72\LIB\CW32.LIB|strncat ACBP=A9
 0001:000B6EB8 0000005F C=CODE    S=_TEXT    G=(none)   M=D:\DEVEL\BCC72\LIB\CW32.LIB|strncmp ACBP=A9
 0001:000B6F18 000000DF C=CODE    S=_TEXT    G=(none)   M=D:\DEVEL\BCC72\LIB\CW32.LIB|wmemset ACBP=A9
 0001:000B6FF8 00000040 C=CODE    S=_TEXT    G=(none)   M=D:\DEVEL\BCC72\LIB\CW32.LIB|__access ACBP=A9
 0001:000B7038 00000063 C=CODE    S=_TEXT    G=(none)   M=D:\DEVEL\BCC72\LIB\CW32.LIB|__close ACBP=A9
 0001:000B709C 00000013 C=CODE    S=_TEXT    G=(none)   M=D:\DEVEL\BCC72\LIB\CW32.LIB|__dup ACBP=A9
 0001:000B70B0 000000EF C=CODE    S=_TEXT    G=(none)   M=D:\DEVEL\BCC72\LIB\CW32.LIB|__dup2 ACBP=A9
 0001:000B71A0 00000086 C=CODE    S=_TEXT    G=(none)   M=D:\DEVEL\BCC72\LIB\CW32.LIB|__eof ACBP=A9
 0001:000B7228 00000047 C=CODE    S=_TEXT    G=(none)   M=D:\DEVEL\BCC72\LIB\CW32.LIB|__isatty ACBP=A9
 0001:000B7270 00000076 C=CODE    S=_TEXT    G=(none)   M=D:\DEVEL\BCC72\LIB\CW32.LIB|__lseek ACBP=A9
 0001:000B72E8 00000214 C=CODE    S=_TEXT    G=(none)   M=D:\DEVEL\BCC72\LIB\CW32.LIB|__open ACBP=A9
 0001:000B74FC 0000019A C=CODE    S=_TEXT    G=(none)   M=D:\DEVEL\BCC72\LIB\CW32.LIB|__read ACBP=A9
 0001:000B7698 0000011C C=CODE    S=_TEXT    G=(none)   M=D:\DEVEL\BCC72\LIB\CW32.LIB|__write ACBP=A9
 0001:000B77B4 00000011 C=CODE    S=_TEXT    G=(none)   M=D:\DEVEL\BCC72\LIB\CW32.LIB|_cfinfo ACBP=A9
 0001:000B77C8 00000075 C=CODE    S=_TEXT    G=(none)   M=D:\DEVEL\BCC72\LIB\CW32.LIB|_read ACBP=A9
 0001:000B783D 00000017 C=CODE    S=_TEXT    G=(none)   M=D:\DEVEL\BCC72\LIB\CW32.LIB|_umask ACBP=A9
 0001:000B7840 00000061 C=CODE    S=_TEXT    G=(none)   M=D:\DEVEL\BCC72\LIB\CW32.LIB|_write ACBP=A9
 0001:000B78A4 0000007D C=CODE    S=_TEXT    G=(none)   M=D:\DEVEL\BCC72\LIB\CW32.LIB|allocbuf ACBP=A9
 0001:000B7924 0000009C C=CODE    S=_TEXT    G=(none)   M=D:\DEVEL\BCC72\LIB\CW32.LIB|chdrive ACBP=A9
 0001:000B79C0 0000008E C=CODE    S=_TEXT    G=(none)   M=D:\DEVEL\BCC72\LIB\CW32.LIB|fclose ACBP=A9
 0001:000B7A50 0000007F C=CODE    S=_TEXT    G=(none)   M=D:\DEVEL\BCC72\LIB\CW32.LIB|fflush ACBP=A9
 0001:000B7AD0 0000005A C=CODE    S=_TEXT    G=(none)   M=D:\DEVEL\BCC72\LIB\CW32.LIB|flushout ACBP=A9
 0001:000B7B2C 00000023 C=CODE    S=_TEXT    G=(none)   M=D:\DEVEL\BCC72\LIB\CW32.LIB|fmodeptr ACBP=A9
 0001:000B7B50 0000021B C=CODE    S=_TEXT    G=(none)   M=D:\DEVEL\BCC72\LIB\CW32.LIB|fopen ACBP=A9
 0001:000B7D6C 00000022 C=CODE    S=_TEXT    G=(none)   M=D:\DEVEL\BCC72\LIB\CW32.LIB|fprintf ACBP=A9
 0001:000B7D90 000000DC C=CODE    S=_TEXT    G=(none)   M=D:\DEVEL\BCC72\LIB\CW32.LIB|fputn ACBP=A9
 0001:000B7E6C 0000014C C=CODE    S=_TEXT    G=(none)   M=D:\DEVEL\BCC72\LIB\CW32.LIB|fseek ACBP=A9
 0001:000B7FB8 000002B9 C=CODE    S=_TEXT    G=(none)   M=D:\DEVEL\BCC72\LIB\CW32.LIB|handles ACBP=A9
 0001:000B8274 0000007E C=CODE    S=_TEXT    G=(none)   M=D:\DEVEL\BCC72\LIB\CW32.LIB|ioerror ACBP=A9
 0001:000B82F4 000001A6 C=CODE    S=_TEXT    G=(none)   M=D:\DEVEL\BCC72\LIB\CW32.LIB|lgetc ACBP=A9
 0001:000B849C 0000011A C=CODE    S=_TEXT    G=(none)   M=D:\DEVEL\BCC72\LIB\CW32.LIB|lputc ACBP=A9
 0001:000B85B8 00000091 C=CODE    S=_TEXT    G=(none)   M=D:\DEVEL\BCC72\LIB\CW32.LIB|mkname ACBP=A9
 0001:000B8649 00000083 C=CODE    S=_TEXT    G=(none)   M=D:\DEVEL\BCC72\LIB\CW32.LIB|perror ACBP=A9
 0001:000B864C 00000023 C=CODE    S=_TEXT    G=(none)   M=D:\DEVEL\BCC72\LIB\CW32.LIB|printf ACBP=A9
 0001:000B8670 0000006E C=CODE    S=_TEXT    G=(none)   M=D:\DEVEL\BCC72\LIB\CW32.LIB|setmode ACBP=A9
 0001:000B86E0 0000004D C=CODE    S=_TEXT    G=(none)   M=D:\DEVEL\BCC72\LIB\CW32.LIB|setvbuf ACBP=A9
 0001:000B8730 00000078 C=CODE    S=_TEXT    G=(none)   M=D:\DEVEL\BCC72\LIB\CW32.LIB|sprintf ACBP=A9
 0001:000B87A8 00000101 C=CODE    S=_TEXT    G=(none)   M=D:\DEVEL\BCC72\LIB\CW32.LIB|streams ACBP=A9
 0001:000B88AC 0000001A C=CODE    S=_TEXT    G=(none)   M=D:\DEVEL\BCC72\LIB\CW32.LIB|unlink ACBP=A9
 0001:000B88C8 00000022 C=CODE    S=_TEXT    G=(none)   M=D:\DEVEL\BCC72\LIB\CW32.LIB|vfprintf ACBP=A9
 0001:000B88EC 00000A98 C=CODE    S=_TEXT    G=(none)   M=D:\DEVEL\BCC72\LIB\CW32.LIB|vprinter ACBP=A9
 0001:000B9384 0000001A C=CODE    S=_TEXT    G=(none)   M=D:\DEVEL\BCC72\LIB\CW32.LIB|wunlink ACBP=A9
 0001:000B93A0 0000002E C=CODE    S=_TEXT    G=(none)   M=D:\DEVEL\BCC72\LIB\CW32.LIB|xfclose ACBP=A9
 0001:000B93D0 00000027 C=CODE    S=_TEXT    G=(none)   M=D:\DEVEL\BCC72\LIB\CW32.LIB|xfflush ACBP=A9
 0001:000B93F8 00000008 C=CODE    S=_TEXT    G=(none)   M=D:\DEVEL\BCC72\LIB\CW32.LIB|access ACBP=A9
 0001:000B9400 00000008 C=CODE    S=_TEXT    G=(none)   M=D:\DEVEL\BCC72\LIB\CW32.LIB|close ACBP=A9
 0001:000B9408 00000008 C=CODE    S=_TEXT    G=(none)   M=D:\DEVEL\BCC72\LIB\CW32.LIB|dup ACBP=A9
 0001:000B9410 00000010 C=CODE    S=_TEXT    G=(none)   M=D:\DEVEL\BCC72\LIB\CW32.LIB|remove ACBP=A9
 0001:000B9420 0000006C C=CODE    S=_TEXT    G=(none)   M=D:\DEVEL\BCC72\LIB\CW32.LIB|getinfo ACBP=A9
 0001:000B948C 00000116 C=CODE    S=_TEXT    G=(none)   M=D:\DEVEL\BCC72\LIB\CW32.LIB|is ACBP=A9
 0001:000B95A4 0000011B C=CODE    S=_TEXT    G=(none)   M=D:\DEVEL\BCC72\LIB\CW32.LIB|wis ACBP=A9
 0001:000B96C0 0000009F C=CODE    S=_TEXT    G=(none)   M=D:\DEVEL\BCC72\LIB\CW32.LIB|isctype ACBP=A9
 0001:000B9760 000000E6 C=CODE    S=_TEXT    G=(none)   M=D:\DEVEL\BCC72\LIB\CW32.LIB|iswctype ACBP=A9
 0001:000B9848 000000C0 C=CODE    S=_TEXT    G=(none)   M=D:\DEVEL\BCC72\LIB\CW32.LIB|ltolower ACBP=A9
 0001:000B9908 000000C0 C=CODE    S=_TEXT    G=(none)   M=D:\DEVEL\BCC72\LIB\CW32.LIB|ltoupper ACBP=A9
 0001:000B99C8 00000681 C=CODE    S=_TEXT    G=(none)   M=D:\DEVEL\BCC72\LIB\CW32.LIB|mbyte1 ACBP=A9
 0001:000BA04C 00000268 C=CODE    S=_TEXT    G=(none)   M=D:\DEVEL\BCC72\LIB\CW32.LIB|_ll ACBP=A9
 0001:000BA2B4 0000001D C=CODE    S=_TEXT    G=(none)   M=D:\DEVEL\BCC72\LIB\CW32.LIB|_finite ACBP=A9
 0001:000BA2D4 0000001E C=CODE    S=_TEXT    G=(none)   M=D:\DEVEL\BCC72\LIB\CW32.LIB|_finitel ACBP=A9
 0001:000BA2F4 0000002B C=CODE    S=_TEXT    G=(none)   M=D:\DEVEL\BCC72\LIB\CW32.LIB|_ftoul ACBP=A9
 0001:000BA320 00000045 C=CODE    S=_TEXT    G=(none)   M=D:\DEVEL\BCC72\LIB\CW32.LIB|_isnan ACBP=A9
 0001:000BA368 00000049 C=CODE    S=_TEXT    G=(none)   M=D:\DEVEL\BCC72\LIB\CW32.LIB|_isnanl ACBP=A9
 0001:000BA3B4 000000B0 C=CODE    S=_TEXT    G=(none)   M=D:\DEVEL\BCC72\LIB\CW32.LIB|_matherr ACBP=A9
 0001:000BA464 00000184 C=CODE    S=_TEXT    G=(none)   M=D:\DEVEL\BCC72\LIB\CW32.LIB|_pow10 ACBP=A9
 0001:000BA5E8 00000077 C=CODE    S=_TEXT    G=(none)   M=D:\DEVEL\BCC72\LIB\CW32.LIB|atol ACBP=A9
 0001:000BA660 0000001C C=CODE    S=_TEXT    G=(none)   M=D:\DEVEL\BCC72\LIB\CW32.LIB|ceil ACBP=A9
 0001:000BA67C 00000013 C=CODE    S=_TEXT    G=(none)   M=D:\DEVEL\BCC72\LIB\CW32.LIB|clear87 ACBP=A9
 0001:000BA690 0000002F C=CODE    S=_TEXT    G=(none)   M=D:\DEVEL\BCC72\LIB\CW32.LIB|ctrl87 ACBP=A9
 0001:000BA6C0 00000018 C=CODE    S=_TEXT    G=(none)   M=D:\DEVEL\BCC72\LIB\CW32.LIB|cvtentry ACBP=A9
 0001:000BA6D8 00000018 C=CODE    S=_TEXT    G=(none)   M=D:\DEVEL\BCC72\LIB\CW32.LIB|cvtfak ACBP=A9
 0001:000BA6F0 00000018 C=CODE    S=_TEXT    G=(none)   M=D:\DEVEL\BCC72\LIB\CW32.LIB|cvtfakw ACBP=A9
 0001:000BA708 00000016 C=CODE    S=_TEXT    G=(none)   M=D:\DEVEL\BCC72\LIB\CW32.LIB|div ACBP=A9
 0001:000BA720 0000006C C=CODE    S=_TEXT    G=(none)   M=D:\DEVEL\BCC72\LIB\CW32.LIB|exp ACBP=A9
 0001:000BA78C 000000D2 C=CODE    S=_TEXT    G=(none)   M=D:\DEVEL\BCC72\LIB\CW32.LIB|f87exp ACBP=A9
 0001:000BA860 00000048 C=CODE    S=_TEXT    G=(none)   M=D:\DEVEL\BCC72\LIB\CW32.LIB|f87log ACBP=A9
 0001:000BA8A8 0000004D C=CODE    S=_TEXT    G=(none)   M=D:\DEVEL\BCC72\LIB\CW32.LIB|fmod ACBP=A9
 0001:000BA8F8 00000016 C=CODE    S=_TEXT    G=(none)   M=D:\DEVEL\BCC72\LIB\CW32.LIB|fpreset ACBP=A9
 0001:000BA910 00000030 C=CODE    S=_TEXT    G=(none)   M=D:\DEVEL\BCC72\LIB\CW32.LIB|ftol ACBP=A9
 0001:000BA940 0000002D C=CODE    S=_TEXT    G=(none)   M=D:\DEVEL\BCC72\LIB\CW32.LIB|fuildq ACBP=A9
 0001:000BA970 00000021 C=CODE    S=_TEXT    G=(none)   M=D:\DEVEL\BCC72\LIB\CW32.LIB|fuistq ACBP=A9
 0001:000BA994 00000011 C=CODE    S=_TEXT    G=(none)   M=D:\DEVEL\BCC72\LIB\CW32.LIB|fxam ACBP=A9
 0001:000BA9A8 000000B1 C=CODE    S=_TEXT    G=(none)   M=D:\DEVEL\BCC72\LIB\CW32.LIB|int64toa ACBP=A9
 0001:000BAA5C 0000011B C=CODE    S=_TEXT    G=(none)   M=D:\DEVEL\BCC72\LIB\CW32.LIB|ldtrunc ACBP=A9
 0001:000BAB78 0000006D C=CODE    S=_TEXT    G=(none)   M=D:\DEVEL\BCC72\LIB\CW32.LIB|log ACBP=A9
 0001:000BABE8 0000008F C=CODE    S=_TEXT    G=(none)   M=D:\DEVEL\BCC72\LIB\CW32.LIB|longtoa ACBP=A9
 0001:000BAC78 00000075 C=CODE    S=_TEXT    G=(none)   M=D:\DEVEL\BCC72\LIB\CW32.LIB|ltoa1 ACBP=A9
 0001:000BACF0 0000002E C=CODE    S=_TEXT    G=(none)   M=D:\DEVEL\BCC72\LIB\CW32.LIB|matherrl ACBP=A9
 0001:000BAD20 00000016 C=CODE    S=_TEXT    G=(none)   M=D:\DEVEL\BCC72\LIB\CW32.LIB|mathptr ACBP=A9
 0001:000BAD38 00000030 C=CODE    S=_TEXT    G=(none)   M=D:\DEVEL\BCC72\LIB\CW32.LIB|modf ACBP=A9
 0001:000BAD68 00000030 C=CODE    S=_TEXT    G=(none)   M=D:\DEVEL\BCC72\LIB\CW32.LIB|modfl ACBP=A9
 0001:000BAD98 000001DC C=CODE    S=_TEXT    G=(none)   M=D:\DEVEL\BCC72\LIB\CW32.LIB|pow ACBP=A9
 0001:000BAF74 00000025 C=CODE    S=_TEXT    G=(none)   M=D:\DEVEL\BCC72\LIB\CW32.LIB|qdiv10 ACBP=A9
 0001:000BAF9C 0000002E C=CODE    S=_TEXT    G=(none)   M=D:\DEVEL\BCC72\LIB\CW32.LIB|qmul10 ACBP=A9
 0001:000BAFCC 00000084 C=CODE    S=_TEXT    G=(none)   M=D:\DEVEL\BCC72\LIB\CW32.LIB|rand ACBP=A9
 0001:000BB050 000002F9 C=CODE    S=_TEXT    G=(none)   M=D:\DEVEL\BCC72\LIB\CW32.LIB|realcvt ACBP=A9
 0001:000BB34C 00000331 C=CODE    S=_TEXT    G=(none)   M=D:\DEVEL\BCC72\LIB\CW32.LIB|realcvtw ACBP=A9
 0001:000BB680 0000002C C=CODE    S=_TEXT    G=(none)   M=D:\DEVEL\BCC72\LIB\CW32.LIB|round ACBP=A9
 0001:000BB6AC 000004E9 C=CODE    S=_TEXT    G=(none)   M=D:\DEVEL\BCC72\LIB\CW32.LIB|scantod ACBP=A9
 0001:000BBB98 000004F5 C=CODE    S=_TEXT    G=(none)   M=D:\DEVEL\BCC72\LIB\CW32.LIB|scanwtod ACBP=A9
 0001:000BC090 0000003A C=CODE    S=_TEXT    G=(none)   M=D:\DEVEL\BCC72\LIB\CW32.LIB|sqrt ACBP=A9
 0001:000BC0CC 000002D8 C=CODE    S=_TEXT    G=(none)   M=D:\DEVEL\BCC72\LIB\CW32.LIB|xcvt ACBP=A9
 0001:000BC3A4 000002F7 C=CODE    S=_TEXT    G=(none)   M=D:\DEVEL\BCC72\LIB\CW32.LIB|xcvtw ACBP=A9
 0001:000BC69C 0000014D C=CODE    S=_TEXT    G=(none)   M=D:\DEVEL\BCC72\LIB\CW32.LIB|mbctype ACBP=A9
 0001:000BC7EC 0000003D C=CODE    S=_TEXT    G=(none)   M=D:\DEVEL\BCC72\LIB\CW32.LIB|mbisalp ACBP=A9
 0001:000BC82C 0000001A C=CODE    S=_TEXT    G=(none)   M=D:\DEVEL\BCC72\LIB\CW32.LIB|mbisdgt ACBP=A9
 0001:000BC848 0000001A C=CODE    S=_TEXT    G=(none)   M=D:\DEVEL\BCC72\LIB\CW32.LIB|mbisspc ACBP=A9
 0001:000BC864 00000054 C=CODE    S=_TEXT    G=(none)   M=D:\DEVEL\BCC72\LIB\CW32.LIB|mbsnbcpy ACBP=A9
 0001:000BC8B8 000000BF C=CODE    S=_TEXT    G=(none)   M=D:\DEVEL\BCC72\LIB\CW32.LIB|mbsnbicm ACBP=A9
 0001:000BC978 00000058 C=CODE    S=_TEXT    G=(none)   M=D:\DEVEL\BCC72\LIB\CW32.LIB|mbsrchr ACBP=A9
 0001:000BC9D0 000000A6 C=CODE    S=_TEXT    G=(none)   M=D:\DEVEL\BCC72\LIB\CW32.LIB|assert ACBP=A9
 0001:000BCA78 000000BA C=CODE    S=_TEXT    G=(none)   M=D:\DEVEL\BCC72\LIB\CW32.LIB|ermsghlp ACBP=A9
 0001:000BCB34 00000006 C=CODE    S=_TEXT    G=(none)   M=D:\DEVEL\BCC72\LIB\CW32.LIB|errno ACBP=A9
 0001:000BCB3C 0000019F C=CODE    S=_TEXT    G=(none)   M=D:\DEVEL\BCC72\LIB\CW32.LIB|errormsg ACBP=A9
 0001:000BCCDC 00000236 C=CODE    S=_TEXT    G=(none)   M=D:\DEVEL\BCC72\LIB\CW32.LIB|qsort ACBP=A9
 0001:000BCF14 00000348 C=CODE    S=_TEXT    G=(none)   M=D:\DEVEL\BCC72\LIB\CW32.LIB|debug_wrapper ACBP=A9
 0001:000BD258 000000A6 C=CODE    S=_TEXT    G=(none)   M=D:\DEVEL\BCC72\LIB\CW32.LIB|abort ACBP=A9
 0001:000BD300 0000011E C=CODE    S=_TEXT    G=(none)   M=D:\DEVEL\BCC72\LIB\CW32.LIB|__atexit ACBP=A9
 0001:000BD420 00000047 C=CODE    S=_TEXT    G=(none)   M=D:\DEVEL\BCC72\LIB\CW32.LIB|__exit ACBP=A9
 0001:000BD468 00000065 C=CODE    S=_TEXT    G=(none)   M=D:\DEVEL\BCC72\LIB\CW32.LIB|exit ACBP=A9
 0001:000BD4D0 00000067 C=CODE    S=_TEXT    G=(none)   M=D:\DEVEL\BCC72\LIB\CW32.LIB|getenv ACBP=A9
 0001:000BD538 0000001A C=CODE    S=_TEXT    G=(none)   M=D:\DEVEL\BCC72\LIB\CW32.LIB|initwild ACBP=A9
 0001:000BD554 00000011 C=CODE    S=_TEXT    G=(none)   M=D:\DEVEL\BCC72\LIB\CW32.LIB|exparg ACBP=A9
 0001:000BD568 00000011 C=CODE    S=_TEXT    G=(none)   M=D:\DEVEL\BCC72\LIB\CW32.LIB|wexparg ACBP=A9
 0001:000BD57C 00000027 C=CODE    S=_TEXT    G=(none)   M=D:\DEVEL\BCC72\LIB\CW32.LIB|initargv ACBP=A9
 0001:000BD5A4 0000016C C=CODE    S=_TEXT    G=(none)   M=D:\DEVEL\BCC72\LIB\CW32.LIB|setargv ACBP=A9
 0001:000BD710 00000224 C=CODE    S=_TEXT    G=(none)   M=D:\DEVEL\BCC72\LIB\CW32.LIB|hsargv ACBP=A9
 0001:000BD934 0000026D C=CODE    S=_TEXT    G=(none)   M=D:\DEVEL\BCC72\LIB\CW32.LIB|whsargv ACBP=A9
 0001:000BDBA4 00000045 C=CODE    S=_TEXT    G=(none)   M=D:\DEVEL\BCC72\LIB\CW32.LIB|setargv0 ACBP=A9
 0001:000BDBEC 000001A0 C=CODE    S=_TEXT    G=(none)   M=D:\DEVEL\BCC72\LIB\CW32.LIB|setenvp ACBP=A9
 0001:000BDD8C 000002FA C=CODE    S=_TEXT    G=(none)   M=D:\DEVEL\BCC72\LIB\CW32.LIB|signal ACBP=A9
 0001:000BE088 00000122 C=CODE    S=_TEXT    G=(none)   M=D:\DEVEL\BCC72\LIB\CW32.LIB|initexit ACBP=A9
 0001:000BE1AC 0000016C C=CODE    S=_TEXT    G=(none)   M=D:\DEVEL\BCC72\LIB\CW32.LIB|startup ACBP=A9
 0001:000BE318 0000004F C=CODE    S=_TEXT    G=(none)   M=D:\DEVEL\BCC72\LIB\CW32.LIB|tlsstat ACBP=A9
 0001:000BE368 00000369 C=CODE    S=_TEXT    G=(none)   M=D:\DEVEL\BCC72\LIB\CW32.LIB|timefunc ACBP=A9
 0001:000BE6D4 00000006 C=CODE    S=_TEXT    G=(none)   M=D:\DEVEL\BCC72\LIB\CW32.LIB|tzdata ACBP=A9
 0001:000BE6DC 000001EE C=CODE    S=_TEXT    G=(none)   M=D:\DEVEL\BCC72\LIB\CW32.LIB|tzset ACBP=A9
 0001:000BE8CC 00000008 C=CODE    S=_TEXT    G=(none)   M=D:\DEVEL\BCC72\LIB\CW32.LIB|_tzset ACBP=A9
 0001:000BE8D4 0000004E C=CODE    S=_TEXT    G=(none)   M=D:\DEVEL\BCC72\LIB\CW32.LIB|time ACBP=A9
 0001:000BE924 00000070 C=CODE    S=_TEXT    G=(none)   M=D:\DEVEL\BCC72\LIB\CW32.LIB|xxa ACBP=A9
 0001:000BE994 000008B9 C=CODE    S=_TEXT    G=(none)   M=D:\DEVEL\BCC72\LIB\CW32.LIB|xxtype ACBP=A9
 0001:000BF217 0000005A C=CODE    S=_TEXT    G=(none)   M=D:\DEVEL\BCC72\LIB\CW32.LIB|xxut ACBP=A9
 0001:000BF240 00000147 C=CODE    S=_TEXT    G=(none)   M=D:\DEVEL\BCC72\LIB\CW32.LIB|xxv ACBP=A9
 0001:000BF388 0000000A C=CODE    S=_TEXT    G=(none)   M=D:\DEVEL\BCC72\LIB\CW32.LIB|defhandl ACBP=A9
 0001:000BF394 00000195 C=CODE    S=_TEXT    G=(none)   M=D:\DEVEL\BCC72\LIB\CW32.LIB|except ACBP=A9
 0001:000BF52C 00000046 C=CODE    S=_TEXT    G=(none)   M=D:\DEVEL\BCC72\LIB\CW32.LIB|setexc ACBP=A9
 0001:000BF574 00000031 C=CODE    S=_TEXT    G=(none)   M=D:\DEVEL\BCC72\LIB\CW32.LIB|ta ACBP=A9
 0001:000BF5A8 00001DAC C=CODE    S=_TEXT    G=(none)   M=D:\DEVEL\BCC72\LIB\CW32.LIB|xx ACBP=A9
 0002:00000000 000000C8 C=DATA    S=_DATA    G=DGROUP   M=D:\DEVEL\BCC72\LIB\C0W32.OBJ ACBP=A9
 0002:000000C8 0000E7F0 C=DATA    S=_DATA    G=DGROUP   M=D:\DEVEL\XHARBOUR_BCC7\CONTRIB\GTWVG\WVTCLASS.OBJ ACBP=A9
 0002:0000E8B8 0000029C C=DATA    S=_DATA    G=DGROUP   M=D:\DEVEL\XHARBOUR_BCC7\LIB\GTWVG.LIB|gtwvg ACBP=A9
 0002:0000EB54 0000011C C=DATA    S=_DATA    G=DGROUP   M=D:\DEVEL\XHARBOUR_BCC7\LIB\GTWVG.LIB|wvtcore ACBP=A9
 0002:0000EC70 000000C0 C=DATA    S=_DATA    G=DGROUP   M=D:\DEVEL\XHARBOUR_BCC7\LIB\GTWVG.LIB|wvtutils ACBP=A9
 0002:0000ED30 000017EC C=DATA    S=_DATA    G=DGROUP   M=D:\DEVEL\XHARBOUR_BCC7\LIB\GTWVG.LIB|wvtpaint ACBP=A9
 0002:0001051C 00000048 C=DATA    S=_DATA    G=DGROUP   M=D:\DEVEL\XHARBOUR_BCC7\LIB\VM.LIB|arrays ACBP=A9
 0002:00010564 00000164 C=DATA    S=_DATA    G=DGROUP   M=D:\DEVEL\XHARBOUR_BCC7\LIB\VM.LIB|arrayshb ACBP=A9
 0002:000106C8 000005C0 C=DATA    S=_DATA    G=DGROUP   M=D:\DEVEL\XHARBOUR_BCC7\LIB\VM.LIB|classes ACBP=A9
 0002:00010C88 00000034 C=DATA    S=_DATA    G=DGROUP   M=D:\DEVEL\XHARBOUR_BCC7\LIB\VM.LIB|codebloc ACBP=A9
 0002:00010CBC 0000001C C=DATA    S=_DATA    G=DGROUP   M=D:\DEVEL\XHARBOUR_BCC7\LIB\VM.LIB|dynsym ACBP=A9
 0002:00010CD8 00000200 C=DATA    S=_DATA    G=DGROUP   M=D:\DEVEL\XHARBOUR_BCC7\LIB\VM.LIB|errorapi ACBP=A9
 0002:00010ED8 00000180 C=DATA    S=_DATA    G=DGROUP   M=D:\DEVEL\XHARBOUR_BCC7\LIB\VM.LIB|estack ACBP=A9
 0002:00011058 0000001C C=DATA    S=_DATA    G=DGROUP   M=D:\DEVEL\XHARBOUR_BCC7\LIB\VM.LIB|eval ACBP=A9
 0002:00011074 00000004 C=DATA    S=_DATA    G=DGROUP   M=D:\DEVEL\XHARBOUR_BCC7\LIB\VM.LIB|extend ACBP=A9
 0002:00011078 00000078 C=DATA    S=_DATA    G=DGROUP   M=D:\DEVEL\XHARBOUR_BCC7\LIB\VM.LIB|fm ACBP=A9
 0002:000110F0 00000048 C=DATA    S=_DATA    G=DGROUP   M=D:\DEVEL\XHARBOUR_BCC7\LIB\VM.LIB|garbage ACBP=A9
 0002:00011138 00000328 C=DATA    S=_DATA    G=DGROUP   M=D:\DEVEL\XHARBOUR_BCC7\LIB\VM.LIB|hash ACBP=A9
 0002:00011460 00000948 C=DATA    S=_DATA    G=DGROUP   M=D:\DEVEL\XHARBOUR_BCC7\LIB\VM.LIB|hvm ACBP=A9
 0002:00011DA8 00000034 C=DATA    S=_DATA    G=DGROUP   M=D:\DEVEL\XHARBOUR_BCC7\LIB\VM.LIB|itemapi ACBP=A9
 0002:00011DDC 000000C4 C=DATA    S=_DATA    G=DGROUP   M=D:\DEVEL\XHARBOUR_BCC7\LIB\VM.LIB|fastitem ACBP=A9
 0002:00011EA0 0000002C C=DATA    S=_DATA    G=DGROUP   M=D:\DEVEL\XHARBOUR_BCC7\LIB\VM.LIB|macro ACBP=A9
 0002:00011ECC 0000012C C=DATA    S=_DATA    G=DGROUP   M=D:\DEVEL\XHARBOUR_BCC7\LIB\VM.LIB|memvars ACBP=A9
 0002:00011FF8 0000005C C=DATA    S=_DATA    G=DGROUP   M=D:\DEVEL\XHARBOUR_BCC7\LIB\VM.LIB|proc ACBP=A9
 0002:00012054 000000A4 C=DATA    S=_DATA    G=DGROUP   M=D:\DEVEL\XHARBOUR_BCC7\LIB\VM.LIB|set ACBP=A9
 0002:000120F8 0000001C C=DATA    S=_DATA    G=DGROUP   M=D:\DEVEL\XHARBOUR_BCC7\LIB\VM.LIB|thread ACBP=A9
 0002:00012114 00000120 C=DATA    S=_DATA    G=DGROUP   M=D:\DEVEL\XHARBOUR_BCC7\LIB\VM.LIB|cmdarg ACBP=A9
 0002:00012234 000000E0 C=DATA    S=_DATA    G=DGROUP   M=D:\DEVEL\XHARBOUR_BCC7\LIB\VM.LIB|hbi18n ACBP=A9
 0002:00012314 00000560 C=DATA    S=_DATA    G=DGROUP   M=D:\DEVEL\XHARBOUR_BCC7\LIB\VM.LIB|initsymb ACBP=A9
 0002:00012874 00000008 C=DATA    S=_DATA    G=DGROUP   M=D:\DEVEL\XHARBOUR_BCC7\LIB\VM.LIB|throw ACBP=A9
 0002:0001287C 00000438 C=DATA    S=_DATA    G=DGROUP   M=D:\DEVEL\XHARBOUR_BCC7\LIB\VM.LIB|harbinit ACBP=A9
 0002:00012CB4 00000044 C=DATA    S=_DATA    G=DGROUP   M=D:\DEVEL\XHARBOUR_BCC7\LIB\VM.LIB|errlogmt ACBP=A9
 0002:00012CF8 00000010 C=DATA    S=_DATA    G=DGROUP   M=D:\DEVEL\XHARBOUR_BCC7\LIB\VM.LIB|bkgtsks ACBP=A9
 0002:00012D08 00000008 C=DATA    S=_DATA    G=DGROUP   M=D:\DEVEL\XHARBOUR_BCC7\LIB\VM.LIB|mainwin ACBP=A9
 0002:00012D10 00000004 C=DATA    S=_DATA    G=DGROUP   M=D:\DEVEL\XHARBOUR_BCC7\LIB\RTL.LIB|abs ACBP=A9
 0002:00012D14 0000000C C=DATA    S=_DATA    G=DGROUP   M=D:\DEVEL\XHARBOUR_BCC7\LIB\RTL.LIB|at ACBP=A9
 0002:00012D20 0000000C C=DATA    S=_DATA    G=DGROUP   M=D:\DEVEL\XHARBOUR_BCC7\LIB\RTL.LIB|box ACBP=A9
 0002:00012D2C 000004B0 C=DATA    S=_DATA    G=DGROUP   M=D:\DEVEL\XHARBOUR_BCC7\LIB\RTL.LIB|cdpapi ACBP=A9
 0002:000131DC 00000008 C=DATA    S=_DATA    G=DGROUP   M=D:\DEVEL\XHARBOUR_BCC7\LIB\RTL.LIB|chrasc ACBP=A9
 0002:000131E4 00000004 C=DATA    S=_DATA    G=DGROUP   M=D:\DEVEL\XHARBOUR_BCC7\LIB\RTL.LIB|colorind ACBP=A9
 0002:000131E8 00000040 C=DATA    S=_DATA    G=DGROUP   M=D:\DEVEL\XHARBOUR_BCC7\LIB\RTL.LIB|console ACBP=A9
 0002:00013228 00000010 C=DATA    S=_DATA    G=DGROUP   M=D:\DEVEL\XHARBOUR_BCC7\LIB\RTL.LIB|datec ACBP=A9
 0002:00013238 0000005C C=DATA    S=_DATA    G=DGROUP   M=D:\DEVEL\XHARBOUR_BCC7\LIB\RTL.LIB|dateshb ACBP=A9
 0002:00013294 00000014 C=DATA    S=_DATA    G=DGROUP   M=D:\DEVEL\XHARBOUR_BCC7\LIB\RTL.LIB|dirdrive ACBP=A9
 0002:000132A8 00000024 C=DATA    S=_DATA    G=DGROUP   M=D:\DEVEL\XHARBOUR_BCC7\LIB\RTL.LIB|diskspac ACBP=A9
 0002:000132CC 00000004 C=DATA    S=_DATA    G=DGROUP   M=D:\DEVEL\XHARBOUR_BCC7\LIB\RTL.LIB|file ACBP=A9
 0002:000132D0 0000004C C=DATA    S=_DATA    G=DGROUP   M=D:\DEVEL\XHARBOUR_BCC7\LIB\RTL.LIB|filebuf ACBP=A9
 0002:0001331C 00000018 C=DATA    S=_DATA    G=DGROUP   M=D:\DEVEL\XHARBOUR_BCC7\LIB\RTL.LIB|filesys ACBP=A9
 0002:00013334 00000004 C=DATA    S=_DATA    G=DGROUP   M=D:\DEVEL\XHARBOUR_BCC7\LIB\RTL.LIB|fparse ACBP=A9
 0002:00013338 00000004 C=DATA    S=_DATA    G=DGROUP   M=D:\DEVEL\XHARBOUR_BCC7\LIB\RTL.LIB|fstemp ACBP=A9
 0002:0001333C 0000001C C=DATA    S=_DATA    G=DGROUP   M=D:\DEVEL\XHARBOUR_BCC7\LIB\RTL.LIB|gtapi ACBP=A9
 0002:00013358 00000030 C=DATA    S=_DATA    G=DGROUP   M=D:\DEVEL\XHARBOUR_BCC7\LIB\RTL.LIB|gtfunc ACBP=A9
 0002:00013388 00000060 C=DATA    S=_DATA    G=DGROUP   M=D:\DEVEL\XHARBOUR_BCC7\LIB\RTL.LIB|hbbitf ACBP=A9
 0002:000133E8 00000360 C=DATA    S=_DATA    G=DGROUP   M=D:\DEVEL\XHARBOUR_BCC7\LIB\RTL.LIB|hbserv ACBP=A9
 0002:00013748 00000020 C=DATA    S=_DATA    G=DGROUP   M=D:\DEVEL\XHARBOUR_BCC7\LIB\RTL.LIB|hbffind ACBP=A9
 0002:00013768 00000294 C=DATA    S=_DATA    G=DGROUP   M=D:\DEVEL\XHARBOUR_BCC7\LIB\RTL.LIB|hbgtcore ACBP=A9
 0002:000139FC 00000024 C=DATA    S=_DATA    G=DGROUP   M=D:\DEVEL\XHARBOUR_BCC7\LIB\RTL.LIB|hbhex2n ACBP=A9
 0002:00013A20 00000004 C=DATA    S=_DATA    G=DGROUP   M=D:\DEVEL\XHARBOUR_BCC7\LIB\RTL.LIB|hbrandom ACBP=A9
 0002:00013A24 00000004 C=DATA    S=_DATA    G=DGROUP   M=D:\DEVEL\XHARBOUR_BCC7\LIB\RTL.LIB|hbtoken ACBP=A9
 0002:00013A28 00000018 C=DATA    S=_DATA    G=DGROUP   M=D:\DEVEL\XHARBOUR_BCC7\LIB\RTL.LIB|idle ACBP=A9
 0002:00013A40 0000000C C=DATA    S=_DATA    G=DGROUP   M=D:\DEVEL\XHARBOUR_BCC7\LIB\RTL.LIB|inkey ACBP=A9
 0002:00013A4C 00000060 C=DATA    S=_DATA    G=DGROUP   M=D:\DEVEL\XHARBOUR_BCC7\LIB\RTL.LIB|langapi ACBP=A9
 0002:00013AAC 00000008 C=DATA    S=_DATA    G=DGROUP   M=D:\DEVEL\XHARBOUR_BCC7\LIB\RTL.LIB|left ACBP=A9
 0002:00013AB4 00000004 C=DATA    S=_DATA    G=DGROUP   M=D:\DEVEL\XHARBOUR_BCC7\LIB\RTL.LIB|len ACBP=A9
 0002:00013AB8 00000154 C=DATA    S=_DATA    G=DGROUP   M=D:\DEVEL\XHARBOUR_BCC7\LIB\RTL.LIB|math ACBP=A9
 0002:00013C0C 00000008 C=DATA    S=_DATA    G=DGROUP   M=D:\DEVEL\XHARBOUR_BCC7\LIB\RTL.LIB|minmax ACBP=A9
 0002:00013C14 00000038 C=DATA    S=_DATA    G=DGROUP   M=D:\DEVEL\XHARBOUR_BCC7\LIB\RTL.LIB|natmsg ACBP=A9
 0002:00013C4C 00000004 C=DATA    S=_DATA    G=DGROUP   M=D:\DEVEL\XHARBOUR_BCC7\LIB\RTL.LIB|padc ACBP=A9
 0002:00013C50 00000004 C=DATA    S=_DATA    G=DGROUP   M=D:\DEVEL\XHARBOUR_BCC7\LIB\RTL.LIB|padl ACBP=A9
 0002:00013C54 00000004 C=DATA    S=_DATA    G=DGROUP   M=D:\DEVEL\XHARBOUR_BCC7\LIB\RTL.LIB|padr ACBP=A9
 0002:00013C58 000000E4 C=DATA    S=_DATA    G=DGROUP   M=D:\DEVEL\XHARBOUR_BCC7\LIB\RTL.LIB|philes ACBP=A9
 0002:00013D3C 0000000C C=DATA    S=_DATA    G=DGROUP   M=D:\DEVEL\XHARBOUR_BCC7\LIB\RTL.LIB|replic ACBP=A9
 0002:00013D48 00000008 C=DATA    S=_DATA    G=DGROUP   M=D:\DEVEL\XHARBOUR_BCC7\LIB\RTL.LIB|right ACBP=A9
 0002:00013D50 0000000C C=DATA    S=_DATA    G=DGROUP   M=D:\DEVEL\XHARBOUR_BCC7\LIB\RTL.LIB|round ACBP=A9
 0002:00013D5C 00000008 C=DATA    S=_DATA    G=DGROUP   M=D:\DEVEL\XHARBOUR_BCC7\LIB\RTL.LIB|seconds ACBP=A9
 0002:00013D64 000000D4 C=DATA    S=_DATA    G=DGROUP   M=D:\DEVEL\XHARBOUR_BCC7\LIB\RTL.LIB|regex ACBP=A9
 0002:00013E38 00000004 C=DATA    S=_DATA    G=DGROUP   M=D:\DEVEL\XHARBOUR_BCC7\LIB\RTL.LIB|setcolor ACBP=A9
 0002:00013E3C 00000008 C=DATA    S=_DATA    G=DGROUP   M=D:\DEVEL\XHARBOUR_BCC7\LIB\RTL.LIB|space ACBP=A9
 0002:00013E44 00000004 C=DATA    S=_DATA    G=DGROUP   M=D:\DEVEL\XHARBOUR_BCC7\LIB\RTL.LIB|spfiles ACBP=A9
 0002:00013E48 00000004 C=DATA    S=_DATA    G=DGROUP   M=D:\DEVEL\XHARBOUR_BCC7\LIB\RTL.LIB|str ACBP=A9
 0002:00013E4C 0000000C C=DATA    S=_DATA    G=DGROUP   M=D:\DEVEL\XHARBOUR_BCC7\LIB\RTL.LIB|strcase ACBP=A9
 0002:00013E58 00000004 C=DATA    S=_DATA    G=DGROUP   M=D:\DEVEL\XHARBOUR_BCC7\LIB\RTL.LIB|strdel ACBP=A9
 0002:00013E5C 0000000C C=DATA    S=_DATA    G=DGROUP   M=D:\DEVEL\XHARBOUR_BCC7\LIB\RTL.LIB|strtran ACBP=A9
 0002:00013E68 0000000C C=DATA    S=_DATA    G=DGROUP   M=D:\DEVEL\XHARBOUR_BCC7\LIB\RTL.LIB|strzero ACBP=A9
 0002:00013E74 00000004 C=DATA    S=_DATA    G=DGROUP   M=D:\DEVEL\XHARBOUR_BCC7\LIB\RTL.LIB|stuff ACBP=A9
 0002:00013E78 00000008 C=DATA    S=_DATA    G=DGROUP   M=D:\DEVEL\XHARBOUR_BCC7\LIB\RTL.LIB|substr ACBP=A9
 0002:00013E80 000000C0 C=DATA    S=_DATA    G=DGROUP   M=D:\DEVEL\XHARBOUR_BCC7\LIB\RTL.LIB|tprinter ACBP=A9
 0002:00013F40 00000030 C=DATA    S=_DATA    G=DGROUP   M=D:\DEVEL\XHARBOUR_BCC7\LIB\RTL.LIB|trace ACBP=A9
 0002:00013F70 00000170 C=DATA    S=_DATA    G=DGROUP   M=D:\DEVEL\XHARBOUR_BCC7\LIB\RTL.LIB|transfrm ACBP=A9
 0002:000140E0 00000010 C=DATA    S=_DATA    G=DGROUP   M=D:\DEVEL\XHARBOUR_BCC7\LIB\RTL.LIB|trim ACBP=A9
 0002:000140F0 00000008 C=DATA    S=_DATA    G=DGROUP   M=D:\DEVEL\XHARBOUR_BCC7\LIB\RTL.LIB|type ACBP=A9
 0002:000140F8 0000000C C=DATA    S=_DATA    G=DGROUP   M=D:\DEVEL\XHARBOUR_BCC7\LIB\RTL.LIB|valtype ACBP=A9
 0002:00014104 00000020 C=DATA    S=_DATA    G=DGROUP   M=D:\DEVEL\XHARBOUR_BCC7\LIB\RTL.LIB|version ACBP=A9
 0002:00014124 00000008 C=DATA    S=_DATA    G=DGROUP   M=D:\DEVEL\XHARBOUR_BCC7\LIB\RTL.LIB|word ACBP=A9
 0002:0001412C 00000008 C=DATA    S=_DATA    G=DGROUP   M=D:\DEVEL\XHARBOUR_BCC7\LIB\RTL.LIB|xhelp ACBP=A9
 0002:00014134 00000004 C=DATA    S=_DATA    G=DGROUP   M=D:\DEVEL\XHARBOUR_BCC7\LIB\RTL.LIB|xsavescr ACBP=A9
 0002:00014138 000004C4 C=DATA    S=_DATA    G=DGROUP   M=D:\DEVEL\XHARBOUR_BCC7\LIB\RTL.LIB|alert ACBP=A9
 0002:000145FC 000006AC C=DATA    S=_DATA    G=DGROUP   M=D:\DEVEL\XHARBOUR_BCC7\LIB\RTL.LIB|color53 ACBP=A9
 0002:00014CA8 0000168C C=DATA    S=_DATA    G=DGROUP   M=D:\DEVEL\XHARBOUR_BCC7\LIB\RTL.LIB|cstr ACBP=A9
 0002:00016334 000026D0 C=DATA    S=_DATA    G=DGROUP   M=D:\DEVEL\XHARBOUR_BCC7\LIB\RTL.LIB|errorsys ACBP=A9
 0002:00018A04 0000010C C=DATA    S=_DATA    G=DGROUP   M=D:\DEVEL\XHARBOUR_BCC7\LIB\RTL.LIB|getlist ACBP=A9
 0002:00018B10 00000DF8 C=DATA    S=_DATA    G=DGROUP   M=D:\DEVEL\XHARBOUR_BCC7\LIB\RTL.LIB|getsys ACBP=A9
 0002:00019908 000000DC C=DATA    S=_DATA    G=DGROUP   M=D:\DEVEL\XHARBOUR_BCC7\LIB\RTL.LIB|memvarbl ACBP=A9
 0002:000199E4 00000BD8 C=DATA    S=_DATA    G=DGROUP   M=D:\DEVEL\XHARBOUR_BCC7\LIB\RTL.LIB|mssgline ACBP=A9
 0002:0001A5BC 00001018 C=DATA    S=_DATA    G=DGROUP   M=D:\DEVEL\XHARBOUR_BCC7\LIB\RTL.LIB|objfunc ACBP=A9
 0002:0001B5D4 0000A3D8 C=DATA    S=_DATA    G=DGROUP   M=D:\DEVEL\XHARBOUR_BCC7\LIB\RTL.LIB|tbrowse ACBP=A9
 0002:000259AC 0000177C C=DATA    S=_DATA    G=DGROUP   M=D:\DEVEL\XHARBOUR_BCC7\LIB\RTL.LIB|tclass ACBP=A9
 0002:00027128 000067D4 C=DATA    S=_DATA    G=DGROUP   M=D:\DEVEL\XHARBOUR_BCC7\LIB\RTL.LIB|tget ACBP=A9
 0002:0002D8FC 00000380 C=DATA    S=_DATA    G=DGROUP   M=D:\DEVEL\XHARBOUR_BCC7\LIB\RTL.LIB|tgetint ACBP=A9
 0002:0002DC7C 00003B90 C=DATA    S=_DATA    G=DGROUP   M=D:\DEVEL\XHARBOUR_BCC7\LIB\RTL.LIB|tgetlist ACBP=A9
 0002:0003180C 00000BD4 C=DATA    S=_DATA    G=DGROUP   M=D:\DEVEL\XHARBOUR_BCC7\LIB\RTL.LIB|tobject ACBP=A9
 0002:000323E0 00000494 C=DATA    S=_DATA    G=DGROUP   M=D:\DEVEL\XHARBOUR_BCC7\LIB\RTL.LIB|traceprg ACBP=A9
 0002:00032874 00001780 C=DATA    S=_DATA    G=DGROUP   M=D:\DEVEL\XHARBOUR_BCC7\LIB\RTL.LIB|tscalar ACBP=A9
 0002:00033FF4 00002104 C=DATA    S=_DATA    G=DGROUP   M=D:\DEVEL\XHARBOUR_BCC7\LIB\MACRO.LIB|macroy ACBP=A9
 0002:000360F8 0000003F C=DATA    S=_DATA    G=DGROUP   M=D:\DEVEL\XHARBOUR_BCC7\LIB\MACRO.LIB|macroa ACBP=A9
 0002:00036138 00000170 C=DATA    S=_DATA    G=DGROUP   M=D:\DEVEL\XHARBOUR_BCC7\LIB\MACRO.LIB|macrob ACBP=A9
 0002:000362A8 00000D18 C=DATA    S=_DATA    G=DGROUP   M=D:\DEVEL\XHARBOUR_BCC7\LIB\MACRO.LIB|macroslx ACBP=A9
 0002:00036FC0 00000008 C=DATA    S=_DATA    G=DGROUP   M=D:\DEVEL\XHARBOUR_BCC7\LIB\COMMON.LIB|hbfsapi ACBP=A9
 0002:00036FC8 00000040 C=DATA    S=_DATA    G=DGROUP   M=D:\DEVEL\XHARBOUR_BCC7\LIB\COMMON.LIB|hbgete ACBP=A9
 0002:00037008 00000694 C=DATA    S=_DATA    G=DGROUP   M=D:\DEVEL\XHARBOUR_BCC7\LIB\COMMON.LIB|hbstr ACBP=A9
 0002:0003769C 0000002C C=DATA    S=_DATA    G=DGROUP   M=D:\DEVEL\XHARBOUR_BCC7\LIB\COMMON.LIB|hbprintf ACBP=A9
 0002:000376C8 000000C0 C=DATA    S=_DATA    G=DGROUP   M=D:\DEVEL\XHARBOUR_BCC7\LIB\COMMON.LIB|hbtrace ACBP=A9
 0002:00037788 00001118 C=DATA    S=_DATA    G=DGROUP   M=D:\DEVEL\XHARBOUR_BCC7\LIB\COMMON.LIB|hbver ACBP=A9
 0002:000388A0 000001BC C=DATA    S=_DATA    G=DGROUP   M=D:\DEVEL\XHARBOUR_BCC7\LIB\COMMON.LIB|expropt1 ACBP=A9
 0002:00038A5C 0000025C C=DATA    S=_DATA    G=DGROUP   M=D:\DEVEL\XHARBOUR_BCC7\LIB\COMMON.LIB|reserved ACBP=A9
 0002:00038CB8 00000094 C=DATA    S=_DATA    G=DGROUP   M=D:\DEVEL\XHARBOUR_BCC7\LIB\COMMON.LIB|hbdate ACBP=A9
 0002:00038D4C 000009A0 C=DATA    S=_DATA    G=DGROUP   M=D:\DEVEL\XHARBOUR_BCC7\LIB\LANG.LIB|msgen ACBP=A9
 0002:000396EC 00000018 C=DATA    S=_DATA    G=DGROUP   M=D:\DEVEL\XHARBOUR_BCC7\LIB\RDD.LIB|dbcmd ACBP=A9
 0002:00039704 000001E0 C=DATA    S=_DATA    G=DGROUP   M=D:\DEVEL\XHARBOUR_BCC7\LIB\RDD.LIB|workarea ACBP=A9
 0002:000398E4 00000034 C=DATA    S=_DATA    G=DGROUP   M=D:\DEVEL\XHARBOUR_BCC7\LIB\RDD.LIB|wacore ACBP=A9
 0002:00039918 00000030 C=DATA    S=_DATA    G=DGROUP   M=D:\DEVEL\XHARBOUR_BCC7\LIB\RDD.LIB|wafunc ACBP=A9
 0002:00039948 000002A0 C=DATA    S=_DATA    G=DGROUP   M=D:\DEVEL\XHARBOUR_BCC7\LIB\RDD.LIB|dbf1 ACBP=A9
 0002:00039BE8 000002E4 C=DATA    S=_DATA    G=DGROUP   M=D:\DEVEL\XHARBOUR_BCC7\LIB\RDD.LIB|rddord ACBP=A9
 0002:00039ECC 00000074 C=DATA    S=_DATA    G=DGROUP   M=D:\DEVEL\XHARBOUR_BCC7\LIB\RDD.LIB|rddsys ACBP=A9
 0002:00039F40 000004A0 C=DATA    S=_DATA    G=DGROUP   M=D:\DEVEL\XHARBOUR_BCC7\LIB\DBFNTX.LIB|dbfntx1 ACBP=A9
 0002:0003A3E0 00000280 C=DATA    S=_DATA    G=DGROUP   M=D:\DEVEL\XHARBOUR_BCC7\LIB\DBFFPT.LIB|dbffpt1 ACBP=A9
 0002:0003A660 00000440 C=DATA    S=_DATA    G=DGROUP   M=D:\DEVEL\XHARBOUR_BCC7\LIB\PCREPOS.LIB|pcre_chartables ACBP=A9
 0002:0003AAA0 00000F58 C=DATA    S=_DATA    G=DGROUP   M=D:\DEVEL\XHARBOUR_BCC7\LIB\PCREPOS.LIB|pcre_compile ACBP=A9
 0002:0003B9F8 0000000C C=DATA    S=_DATA    G=DGROUP   M=D:\DEVEL\XHARBOUR_BCC7\LIB\PCREPOS.LIB|pcre_exec ACBP=A9
 0002:0003BA04 00000014 C=DATA    S=_DATA    G=DGROUP   M=D:\DEVEL\XHARBOUR_BCC7\LIB\PCREPOS.LIB|pcre_globals ACBP=A9
 0002:0003BA18 000009C4 C=DATA    S=_DATA    G=DGROUP   M=D:\DEVEL\XHARBOUR_BCC7\LIB\PCREPOS.LIB|pcre_tables ACBP=A9
 0002:0003C3DC 00000024 C=DATA    S=_DATA    G=DGROUP   M=D:\DEVEL\XHARBOUR_BCC7\LIB\PCREPOS.LIB|pcre_version ACBP=A9
 0002:0003C400 000002D4 C=DATA    S=_DATA    G=DGROUP   M=D:\DEVEL\XHARBOUR_BCC7\LIB\PCREPOS.LIB|pcreposix ACBP=A9
 0002:0003C6D4 00000010 C=DATA    S=_DATA    G=DGROUP   M=D:\DEVEL\BCC72\LIB\CW32.LIB|delaop ACBP=A9
 0002:0003C6E4 00000010 C=DATA    S=_DATA    G=DGROUP   M=D:\DEVEL\BCC72\LIB\CW32.LIB|delop ACBP=A9
 0002:0003C6F4 0000002C C=DATA    S=_DATA    G=DGROUP   M=D:\DEVEL\BCC72\LIB\CW32.LIB|exceptio ACBP=A9
 0002:0003C6FC 00000028 C=DATA    S=_DATA    G=DGROUP   M=D:\DEVEL\BCC72\LIB\CW32.LIB|gccex ACBP=A9
 0002:0003C724 00000068 C=DATA    S=_DATA    G=DGROUP   M=D:\DEVEL\BCC72\LIB\CW32.LIB|inst ACBP=A9
 0002:0003C774 00000110 C=DATA    S=_DATA    G=DGROUP   M=D:\DEVEL\BCC72\LIB\CW32.LIB|hrdir_b ACBP=A9
 0002:0003C884 00000024 C=DATA    S=_DATA    G=DGROUP   M=D:\DEVEL\BCC72\LIB\CW32.LIB|hrdir_s ACBP=A9
 0002:0003C8A8 00000004 C=DATA    S=_DATA    G=DGROUP   M=D:\DEVEL\BCC72\LIB\CW32.LIB|_stkchk ACBP=A9
 0002:0003C8AC 000007B4 C=DATA    S=_DATA    G=DGROUP   M=D:\DEVEL\BCC72\LIB\CW32.LIB|_fastmm ACBP=A9
 0002:0003D060 00000014 C=DATA    S=_DATA    G=DGROUP   M=D:\DEVEL\BCC72\LIB\CW32.LIB|strerror ACBP=A9
 0002:0003D074 0000000C C=DATA    S=_DATA    G=DGROUP   M=D:\DEVEL\BCC72\LIB\CW32.LIB|__dup2 ACBP=A9
 0002:0003D080 00000004 C=DATA    S=_DATA    G=DGROUP   M=D:\DEVEL\BCC72\LIB\CW32.LIB|_cfinfo ACBP=A9
 0002:0003D084 00000004 C=DATA    S=_DATA    G=DGROUP   M=D:\DEVEL\BCC72\LIB\CW32.LIB|_umask ACBP=A9
 0002:0003D088 00000004 C=DATA    S=_DATA    G=DGROUP   M=D:\DEVEL\BCC72\LIB\CW32.LIB|cfinfo ACBP=A9
 0002:0003D08C 000004B0 C=DATA    S=_DATA    G=DGROUP   M=D:\DEVEL\BCC72\LIB\CW32.LIB|files ACBP=A9
 0002:0003D53C 000000CC C=DATA    S=_DATA    G=DGROUP   M=D:\DEVEL\BCC72\LIB\CW32.LIB|files2 ACBP=A9
 0002:0003D608 00000004 C=DATA    S=_DATA    G=DGROUP   M=D:\DEVEL\BCC72\LIB\CW32.LIB|fmode ACBP=A9
 0002:0003D60C 00000004 C=DATA    S=_DATA    G=DGROUP   M=D:\DEVEL\BCC72\LIB\CW32.LIB|fmodeptr ACBP=A9
 0002:0003D610 0000012B C=DATA    S=_DATA    G=DGROUP   M=D:\DEVEL\BCC72\LIB\CW32.LIB|ioerror ACBP=A9
 0002:0003D73C 0000000C C=DATA    S=_DATA    G=DGROUP   M=D:\DEVEL\BCC72\LIB\CW32.LIB|mkname ACBP=A9
 0002:0003D748 00000494 C=DATA    S=_DATA    G=DGROUP   M=D:\DEVEL\BCC72\LIB\CW32.LIB|perror ACBP=A9
 0002:0003DBDC 00000076 C=DATA    S=_DATA    G=DGROUP   M=D:\DEVEL\BCC72\LIB\CW32.LIB|vprinter ACBP=A9
 0002:0003DC54 00000202 C=DATA    S=_DATA    G=DGROUP   M=D:\DEVEL\BCC72\LIB\CW32.LIB|bigctype ACBP=A9
 0002:0003DE58 00000100 C=DATA    S=_DATA    G=DGROUP   M=D:\DEVEL\BCC72\LIB\CW32.LIB|clower ACBP=A9
 0002:0003DF58 00000100 C=DATA    S=_DATA    G=DGROUP   M=D:\DEVEL\BCC72\LIB\CW32.LIB|cupper ACBP=A9
 0002:0003E058 0000025C C=DATA    S=_DATA    G=DGROUP   M=D:\DEVEL\BCC72\LIB\CW32.LIB|clocale ACBP=A9
 0002:0003E2B4 00000010 C=DATA    S=_DATA    G=DGROUP   M=D:\DEVEL\BCC72\LIB\CW32.LIB|_matherr ACBP=A9
 0002:0003E2C4 000000C0 C=DATA    S=_DATA    G=DGROUP   M=D:\DEVEL\BCC72\LIB\CW32.LIB|_pow10 ACBP=A9
 0002:0003E384 00000068 C=DATA    S=_DATA    G=DGROUP   M=D:\DEVEL\BCC72\LIB\CW32.LIB|cvtfak ACBP=A9
 0002:0003E3EC 00000068 C=DATA    S=_DATA    G=DGROUP   M=D:\DEVEL\BCC72\LIB\CW32.LIB|cvtfakw ACBP=A9
 0002:0003E454 00000004 C=DATA    S=_DATA    G=DGROUP   M=D:\DEVEL\BCC72\LIB\CW32.LIB|deflt87 ACBP=A9
 0002:0003E458 0000000C C=DATA    S=_DATA    G=DGROUP   M=D:\DEVEL\BCC72\LIB\CW32.LIB|exp ACBP=A9
 0002:0003E464 00000012 C=DATA    S=_DATA    G=DGROUP   M=D:\DEVEL\BCC72\LIB\CW32.LIB|f87exp ACBP=A9
 0002:0003E478 00000016 C=DATA    S=_DATA    G=DGROUP   M=D:\DEVEL\BCC72\LIB\CW32.LIB|f87log ACBP=A9
 0002:0003E490 0000007C C=DATA    S=_DATA    G=DGROUP   M=D:\DEVEL\BCC72\LIB\CW32.LIB|hugeval ACBP=A9
 0002:0003E50C 00000008 C=DATA    S=_DATA    G=DGROUP   M=D:\DEVEL\BCC72\LIB\CW32.LIB|initcvt ACBP=A9
 0002:0003E514 0000000C C=DATA    S=_DATA    G=DGROUP   M=D:\DEVEL\BCC72\LIB\CW32.LIB|log ACBP=A9
 0002:0003E520 00000008 C=DATA    S=_DATA    G=DGROUP   M=D:\DEVEL\BCC72\LIB\CW32.LIB|mathptr ACBP=A9
 0002:0003E528 00000044 C=DATA    S=_DATA    G=DGROUP   M=D:\DEVEL\BCC72\LIB\CW32.LIB|mathwhy ACBP=A9
 0002:0003E56C 0000001C C=DATA    S=_DATA    G=DGROUP   M=D:\DEVEL\BCC72\LIB\CW32.LIB|pow ACBP=A9
 0002:0003E588 00000008 C=DATA    S=_DATA    G=DGROUP   M=D:\DEVEL\BCC72\LIB\CW32.LIB|rand ACBP=A9
 0002:0003E590 00000014 C=DATA    S=_DATA    G=DGROUP   M=D:\DEVEL\BCC72\LIB\CW32.LIB|realcvt ACBP=A9
 0002:0003E5A4 00000028 C=DATA    S=_DATA    G=DGROUP   M=D:\DEVEL\BCC72\LIB\CW32.LIB|realcvtw ACBP=A9
 0002:0003E5CC 00000028 C=DATA    S=_DATA    G=DGROUP   M=D:\DEVEL\BCC72\LIB\CW32.LIB|scantod ACBP=A9
 0002:0003E5F4 00000028 C=DATA    S=_DATA    G=DGROUP   M=D:\DEVEL\BCC72\LIB\CW32.LIB|scanwtod ACBP=A9
 0002:0003E61C 00000010 C=DATA    S=_DATA    G=DGROUP   M=D:\DEVEL\BCC72\LIB\CW32.LIB|sqrt ACBP=A9
 0002:0003E62C 00000048 C=DATA    S=_DATA    G=DGROUP   M=D:\DEVEL\BCC72\LIB\CW32.LIB|mbctype ACBP=A9
 0002:0003E674 00000024 C=DATA    S=_DATA    G=DGROUP   M=D:\DEVEL\BCC72\LIB\CW32.LIB|assert ACBP=A9
 0002:0003E698 00000024 C=DATA    S=_DATA    G=DGROUP   M=D:\DEVEL\BCC72\LIB\CW32.LIB|ermsghlp ACBP=A9
 0002:0003E6BC 00000004 C=DATA    S=_DATA    G=DGROUP   M=D:\DEVEL\BCC72\LIB\CW32.LIB|errno ACBP=A9
 0002:0003E6C0 00000010 C=DATA    S=_DATA    G=DGROUP   M=D:\DEVEL\BCC72\LIB\CW32.LIB|errormsg ACBP=A9
 0002:0003E6D0 00000018 C=DATA    S=_DATA    G=DGROUP   M=D:\DEVEL\BCC72\LIB\CW32.LIB|debug_wrapper ACBP=A9
 0002:0003E6E8 0000003C C=DATA    S=_DATA    G=DGROUP   M=D:\DEVEL\BCC72\LIB\CW32.LIB|abort ACBP=A9
 0002:0003E724 0000000C C=DATA    S=_DATA    G=DGROUP   M=D:\DEVEL\BCC72\LIB\CW32.LIB|__exit ACBP=A9
 0002:0003E730 00000008 C=DATA    S=_DATA    G=DGROUP   M=D:\DEVEL\BCC72\LIB\CW32.LIB|saptr ACBP=A9
 0002:0003E738 00000008 C=DATA    S=_DATA    G=DGROUP   M=D:\DEVEL\BCC72\LIB\CW32.LIB|wsaptr ACBP=A9
 0002:0003E740 00000054 C=DATA    S=_DATA    G=DGROUP   M=D:\DEVEL\BCC72\LIB\CW32.LIB|setargv ACBP=A9
 0002:0003E794 00000028 C=DATA    S=_DATA    G=DGROUP   M=D:\DEVEL\BCC72\LIB\CW32.LIB|hsargv ACBP=A9
 0002:0003E7BC 00000024 C=DATA    S=_DATA    G=DGROUP   M=D:\DEVEL\BCC72\LIB\CW32.LIB|whsargv ACBP=A9
 0002:0003E7E0 00000004 C=DATA    S=_DATA    G=DGROUP   M=D:\DEVEL\BCC72\LIB\CW32.LIB|wildptr ACBP=A9
 0002:0003E7E4 00000004 C=DATA    S=_DATA    G=DGROUP   M=D:\DEVEL\BCC72\LIB\CW32.LIB|wwildptr ACBP=A9
 0002:0003E7E8 00000020 C=DATA    S=_DATA    G=DGROUP   M=D:\DEVEL\BCC72\LIB\CW32.LIB|setargv0 ACBP=A9
 0002:0003E808 00000054 C=DATA    S=_DATA    G=DGROUP   M=D:\DEVEL\BCC72\LIB\CW32.LIB|setenvp ACBP=A9
 0002:0003E85C 0000005E C=DATA    S=_DATA    G=DGROUP   M=D:\DEVEL\BCC72\LIB\CW32.LIB|signal ACBP=A9
 0002:0003E8BC 00000004 C=DATA    S=_DATA    G=DGROUP   M=D:\DEVEL\BCC72\LIB\CW32.LIB|globals ACBP=A9
 0002:0003E8C0 00000004 C=DATA    S=_DATA    G=DGROUP   M=D:\DEVEL\BCC72\LIB\CW32.LIB|initexit ACBP=A9
 0002:0003E8C4 000001C4 C=DATA    S=_DATA    G=DGROUP   M=D:\DEVEL\BCC72\LIB\CW32.LIB|timedata ACBP=A9
 0002:0003EA88 00000008 C=DATA    S=_DATA    G=DGROUP   M=D:\DEVEL\BCC72\LIB\CW32.LIB|timefunc ACBP=A9
 0002:0003EA90 00000008 C=DATA    S=_DATA    G=DGROUP   M=D:\DEVEL\BCC72\LIB\CW32.LIB|tzdata ACBP=A9
 0002:0003EA98 00000014 C=DATA    S=_DATA    G=DGROUP   M=D:\DEVEL\BCC72\LIB\CW32.LIB|tzset ACBP=A9
 0002:0003EAAC 00000004 C=DATA    S=_DATA    G=DGROUP   M=D:\DEVEL\BCC72\LIB\CW32.LIB|xx_xpf ACBP=A9
 0002:0003EAB0 00000370 C=DATA    S=_DATA    G=DGROUP   M=D:\DEVEL\BCC72\LIB\CW32.LIB|xxtype ACBP=A9
 0002:0003EE10 00000014 C=DATA    S=_DATA    G=DGROUP   M=D:\DEVEL\BCC72\LIB\CW32.LIB|xxut ACBP=A9
 0002:0003EE18 000000E8 C=DATA    S=_DATA    G=DGROUP   M=D:\DEVEL\BCC72\LIB\CW32.LIB|xxv ACBP=A9
 0002:0003EF00 00000010 C=DATA    S=_DATA    G=DGROUP   M=D:\DEVEL\BCC72\LIB\CW32.LIB|except ACBP=A9
 0002:0003EF10 000009E0 C=DATA    S=_DATA    G=DGROUP   M=D:\DEVEL\BCC72\LIB\CW32.LIB|xx ACBP=A9
 0002:0003F8F0 00000020 C=DATA    S=_DATA    G=DGROUP   M=D:\DEVEL\BCC72\LIB\IMPORT32.LIB|inetguid ACBP=A9
 0003:00000000 00000018 C=BSS     S=_BSS     G=DGROUP   M=D:\DEVEL\XHARBOUR_BCC7\CONTRIB\GTWVG\WVTCLASS.OBJ ACBP=A9
 0003:00000018 000005D8 C=BSS     S=_BSS     G=DGROUP   M=D:\DEVEL\XHARBOUR_BCC7\LIB\GTWVG.LIB|gtwvg ACBP=A9
 0003:000005F0 00000018 C=BSS     S=_BSS     G=DGROUP   M=D:\DEVEL\XHARBOUR_BCC7\LIB\GTWVG.LIB|wvtpaint ACBP=A9
 0003:00000608 00000004 C=BSS     S=_BSS     G=DGROUP   M=D:\DEVEL\XHARBOUR_BCC7\LIB\VM.LIB|errorapi ACBP=A9
 0003:0000060C 000016E4 C=BSS     S=_BSS     G=DGROUP   M=D:\DEVEL\XHARBOUR_BCC7\LIB\VM.LIB|estack ACBP=A9
 0003:00001CF0 00000018 C=BSS     S=_BSS     G=DGROUP   M=D:\DEVEL\XHARBOUR_BCC7\LIB\VM.LIB|extend ACBP=A9
 0003:00001D08 000001F0 C=BSS     S=_BSS     G=DGROUP   M=D:\DEVEL\XHARBOUR_BCC7\LIB\VM.LIB|fm ACBP=A9
 0003:00001EF8 00000038 C=BSS     S=_BSS     G=DGROUP   M=D:\DEVEL\XHARBOUR_BCC7\LIB\VM.LIB|hvm ACBP=A9
 0003:00001F30 00000214 C=BSS     S=_BSS     G=DGROUP   M=D:\DEVEL\XHARBOUR_BCC7\LIB\VM.LIB|set ACBP=A9
 0003:00002144 0000018D C=BSS     S=_BSS     G=DGROUP   M=D:\DEVEL\XHARBOUR_BCC7\LIB\VM.LIB|hbi18n ACBP=A9
 0003:000022D4 00000018 C=BSS     S=_BSS     G=DGROUP   M=D:\DEVEL\XHARBOUR_BCC7\LIB\VM.LIB|harbinit ACBP=A9
 0003:000022EC 00000018 C=BSS     S=_BSS     G=DGROUP   M=D:\DEVEL\XHARBOUR_BCC7\LIB\VM.LIB|errlogmt ACBP=A9
 0003:00002304 00000300 C=BSS     S=_BSS     G=DGROUP   M=D:\DEVEL\XHARBOUR_BCC7\LIB\VM.LIB|mainwin ACBP=A9
 0003:00002604 00000004 C=BSS     S=_BSS     G=DGROUP   M=D:\DEVEL\XHARBOUR_BCC7\LIB\RTL.LIB|console ACBP=A9
 0003:00002608 00000004 C=BSS     S=_BSS     G=DGROUP   M=D:\DEVEL\XHARBOUR_BCC7\LIB\RTL.LIB|dirdrive ACBP=A9
 0003:0000260C 00000080 C=BSS     S=_BSS     G=DGROUP   M=D:\DEVEL\XHARBOUR_BCC7\LIB\RTL.LIB|filebuf ACBP=A9
 0003:0000268C 00000218 C=BSS     S=_BSS     G=DGROUP   M=D:\DEVEL\XHARBOUR_BCC7\LIB\RTL.LIB|filesys ACBP=A9
 0003:000028A4 00000008 C=BSS     S=_BSS     G=DGROUP   M=D:\DEVEL\XHARBOUR_BCC7\LIB\RTL.LIB|gtclip ACBP=A9
 0003:000028AC 0000010C C=BSS     S=_BSS     G=DGROUP   M=D:\DEVEL\XHARBOUR_BCC7\LIB\RTL.LIB|hbgtcore ACBP=A9
 0003:000029B8 00000200 C=BSS     S=_BSS     G=DGROUP   M=D:\DEVEL\XHARBOUR_BCC7\LIB\RTL.LIB|langapi ACBP=A9
 0003:00002BB8 00000004 C=BSS     S=_BSS     G=DGROUP   M=D:\DEVEL\XHARBOUR_BCC7\LIB\RTL.LIB|setkey ACBP=A9
 0003:00002BBC 00000004 C=BSS     S=_BSS     G=DGROUP   M=D:\DEVEL\XHARBOUR_BCC7\LIB\RTL.LIB|xsavescr ACBP=A9
 0003:00002BC0 00000018 C=BSS     S=_BSS     G=DGROUP   M=D:\DEVEL\XHARBOUR_BCC7\LIB\RTL.LIB|alert ACBP=A9
 0003:00002BD8 00000018 C=BSS     S=_BSS     G=DGROUP   M=D:\DEVEL\XHARBOUR_BCC7\LIB\RTL.LIB|color53 ACBP=A9
 0003:00002BF0 00000018 C=BSS     S=_BSS     G=DGROUP   M=D:\DEVEL\XHARBOUR_BCC7\LIB\RTL.LIB|cstr ACBP=A9
 0003:00002C08 00000018 C=BSS     S=_BSS     G=DGROUP   M=D:\DEVEL\XHARBOUR_BCC7\LIB\RTL.LIB|errorsys ACBP=A9
 0003:00002C20 00000018 C=BSS     S=_BSS     G=DGROUP   M=D:\DEVEL\XHARBOUR_BCC7\LIB\RTL.LIB|getlist ACBP=A9
 0003:00002C38 00000018 C=BSS     S=_BSS     G=DGROUP   M=D:\DEVEL\XHARBOUR_BCC7\LIB\RTL.LIB|getsys ACBP=A9
 0003:00002C50 00000018 C=BSS     S=_BSS     G=DGROUP   M=D:\DEVEL\XHARBOUR_BCC7\LIB\RTL.LIB|memvarbl ACBP=A9
 0003:00002C68 00000018 C=BSS     S=_BSS     G=DGROUP   M=D:\DEVEL\XHARBOUR_BCC7\LIB\RTL.LIB|mssgline ACBP=A9
 0003:00002C80 00000018 C=BSS     S=_BSS     G=DGROUP   M=D:\DEVEL\XHARBOUR_BCC7\LIB\RTL.LIB|objfunc ACBP=A9
 0003:00002C98 00000018 C=BSS     S=_BSS     G=DGROUP   M=D:\DEVEL\XHARBOUR_BCC7\LIB\RTL.LIB|tbrowse ACBP=A9
 0003:00002CB0 00000018 C=BSS     S=_BSS     G=DGROUP   M=D:\DEVEL\XHARBOUR_BCC7\LIB\RTL.LIB|tclass ACBP=A9
 0003:00002CC8 00000018 C=BSS     S=_BSS     G=DGROUP   M=D:\DEVEL\XHARBOUR_BCC7\LIB\RTL.LIB|tget ACBP=A9
 0003:00002CE0 00000018 C=BSS     S=_BSS     G=DGROUP   M=D:\DEVEL\XHARBOUR_BCC7\LIB\RTL.LIB|tgetint ACBP=A9
 0003:00002CF8 00000018 C=BSS     S=_BSS     G=DGROUP   M=D:\DEVEL\XHARBOUR_BCC7\LIB\RTL.LIB|tgetlist ACBP=A9
 0003:00002D10 00000018 C=BSS     S=_BSS     G=DGROUP   M=D:\DEVEL\XHARBOUR_BCC7\LIB\RTL.LIB|tobject ACBP=A9
 0003:00002D28 00000018 C=BSS     S=_BSS     G=DGROUP   M=D:\DEVEL\XHARBOUR_BCC7\LIB\RTL.LIB|traceprg ACBP=A9
 0003:00002D40 00000018 C=BSS     S=_BSS     G=DGROUP   M=D:\DEVEL\XHARBOUR_BCC7\LIB\RTL.LIB|tscalar ACBP=A9
 0003:00002D58 00000054 C=BSS     S=_BSS     G=DGROUP   M=D:\DEVEL\XHARBOUR_BCC7\LIB\MACRO.LIB|macroy ACBP=A9
 0003:00002DAC 00004AE0 C=BSS     S=_BSS     G=DGROUP   M=D:\DEVEL\XHARBOUR_BCC7\LIB\MACRO.LIB|macroslx ACBP=A9
 0003:0000788C 000001A8 C=BSS     S=_BSS     G=DGROUP   M=D:\DEVEL\XHARBOUR_BCC7\LIB\RDD.LIB|dbf1 ACBP=A9
 0003:00007A34 00000018 C=BSS     S=_BSS     G=DGROUP   M=D:\DEVEL\XHARBOUR_BCC7\LIB\RDD.LIB|rddord ACBP=A9
 0003:00007A4C 00000018 C=BSS     S=_BSS     G=DGROUP   M=D:\DEVEL\XHARBOUR_BCC7\LIB\RDD.LIB|rddsys ACBP=A9
 0003:00007A64 000001AC C=BSS     S=_BSS     G=DGROUP   M=D:\DEVEL\XHARBOUR_BCC7\LIB\DBFNTX.LIB|dbfntx1 ACBP=A9
 0003:00007C10 000001A8 C=BSS     S=_BSS     G=DGROUP   M=D:\DEVEL\XHARBOUR_BCC7\LIB\DBFFPT.LIB|dbffpt1 ACBP=A9
 0003:00007DB8 00000020 C=BSS     S=_BSS     G=DGROUP   M=D:\DEVEL\BCC72\LIB\CW32.LIB|hrdir_b ACBP=A9
 0003:00007DD8 000021FC C=BSS     S=_BSS     G=DGROUP   M=D:\DEVEL\BCC72\LIB\CW32.LIB|_fastmm ACBP=A9
 0003:00009FD4 000000A1 C=BSS     S=_BSS     G=DGROUP   M=D:\DEVEL\BCC72\LIB\CW32.LIB|strerror ACBP=A9
 0003:0000A078 00000190 C=BSS     S=_BSS     G=DGROUP   M=D:\DEVEL\BCC72\LIB\CW32.LIB|files2 ACBP=A9
 0003:0000A208 00000004 C=BSS     S=_BSS     G=DGROUP   M=D:\DEVEL\BCC72\LIB\CW32.LIB|ioerror ACBP=A9
 0003:0000A20C 00000001 C=BSS     S=_BSS     G=DGROUP   M=D:\DEVEL\BCC72\LIB\CW32.LIB|lgetc ACBP=A9
 0003:0000A210 0000000F C=BSS     S=_BSS     G=DGROUP   M=D:\DEVEL\BCC72\LIB\CW32.LIB|mkname ACBP=A9
 0003:0000A220 00000108 C=BSS     S=_BSS     G=DGROUP   M=D:\DEVEL\BCC72\LIB\CW32.LIB|mbctype ACBP=A9
 0003:0000A328 00000100 C=BSS     S=_BSS     G=DGROUP   M=D:\DEVEL\BCC72\LIB\CW32.LIB|assert ACBP=A9
 0003:0000A428 00000019 C=BSS     S=_BSS     G=DGROUP   M=D:\DEVEL\BCC72\LIB\CW32.LIB|ermsghlp ACBP=A9
 0003:0000A444 00000008 C=BSS     S=_BSS     G=DGROUP   M=D:\DEVEL\BCC72\LIB\CW32.LIB|qsort ACBP=A9
 0003:0000A44C 00000004 C=BSS     S=_BSS     G=DGROUP   M=D:\DEVEL\BCC72\LIB\CW32.LIB|debug_wrapper ACBP=A9
 0003:0000A450 00004004 C=BSS     S=_BSS     G=DGROUP   M=D:\DEVEL\BCC72\LIB\CW32.LIB|__atexit ACBP=A9
 0003:0000E454 0000000C C=BSS     S=_BSS     G=DGROUP   M=D:\DEVEL\BCC72\LIB\CW32.LIB|setargv ACBP=A9
 0003:0000E460 00000004 C=BSS     S=_BSS     G=DGROUP   M=D:\DEVEL\BCC72\LIB\CW32.LIB|hsargv ACBP=A9
 0003:0000E464 00000004 C=BSS     S=_BSS     G=DGROUP   M=D:\DEVEL\BCC72\LIB\CW32.LIB|whsargv ACBP=A9
 0003:0000E468 00000010 C=BSS     S=_BSS     G=DGROUP   M=D:\DEVEL\BCC72\LIB\CW32.LIB|setenvp ACBP=A9
 0003:0000E478 00000040 C=BSS     S=_BSS     G=DGROUP   M=D:\DEVEL\BCC72\LIB\CW32.LIB|globals ACBP=A9
 0003:0000E4B8 00000008 C=BSS     S=_BSS     G=DGROUP   M=D:\DEVEL\BCC72\LIB\CW32.LIB|tzset ACBP=A9
 0003:0000E4C0 00000408 C=BSS     S=_BSS     G=DGROUP   M=D:\DEVEL\BCC72\LIB\CW32.LIB|xxtype ACBP=A9
 0003:0000E8C8 00000008 C=BSS     S=_BSS     G=DGROUP   M=D:\DEVEL\BCC72\LIB\CW32.LIB|xxv ACBP=A9
 0003:0000E8D0 00000008 C=BSS     S=_BSS     G=DGROUP   M=D:\DEVEL\BCC72\LIB\CW32.LIB|except ACBP=A9
 0003:0000E8D8 00000020 C=BSS     S=_BSS     G=DGROUP   M=D:\DEVEL\BCC72\LIB\CW32.LIB|xx ACBP=A9
 0004:00000000 0000009C C=TLS     S=_TLS     G=DGROUP   M=D:\DEVEL\BCC72\LIB\CW32.LIB|xxv ACBP=A9

 Address Publics by Name

 0002:0003C760  @std@bad_cast@3
 0002:0003F8DC  @std@bad_exception@3
 0002:0003EDFC  @std@bad_typeid@3
 0002:0003C710  @std@exception@3
 0003:00002144  B105_2
 0003:000022D4  B119_2
 0003:000022EC  B121_2
 0003:00002304  B133_2
 0003:00002604  B157_2
 0003:00007DB8  B1684_2
 0003:00002608  B171_2
 0003:00007DD8  B1730_2
 0003:00009FD4  B1841_2
 0003:0000260C  B185_2
 0003:0000268C  B193_2
 0003:0000A078  B2133_1
 0003:000028A4  B217_1
 0003:0000A208  B2223_2
 0003:0000A20C  B2227_1
 0003:0000A210  B2243_2
 0003:000028AC  B255_2
 0003:00000018  B27_2
 0003:000029B8  B289_2
 0003:0000A220  B2974_2
 0003:00000000  B2_2
 0003:0000A328  B3114_2
 0003:0000A428  B3132_2
 0003:0000A444  B3148_1
 0003:0000A44C  B3163_2
 0003:0000A450  B3169_1
 0003:0000E454  B3233_2
 0003:0000E460  B3235_2
 0003:0000E464  B3237_2
 0003:0000E468  B3306_2
 0003:0000E478  B3334_1
 0003:0000E4B8  B3383_2
 0003:0000E4C0  B3419_2
 0003:0000E8C8  B3423_2
 0003:0000E8D0  B3429_2
 0003:0000E8D8  B3462_2
 0003:000005F0  B35_2
 0003:00002BB8  B373_1
 0003:00002BBC  B435_2
 0003:00002BC0  B441_2
 0003:00002BD8  B455_2
 0003:00002BF0  B457_2
 0003:00002C08  B477_2
 0003:00002C20  B481_2
 0003:00002C38  B483_2
 0003:00002C50  B499_2
 0003:00002C68  B503_2
 0003:00002C80  B505_2
 0003:00002C98  B537_2
 0003:00002CB0  B539_2
 0003:00002CC8  B545_2
 0003:00002CE0  B547_2
 0003:00002CF8  B549_2
 0003:00002D10  B555_2
 0003:00002D28  B559_2
 0003:00002D40  B567_2
 0003:00000608  B61_2
 0003:00002D58  B623_2
 0003:00002DAC  B631_2
 0003:0000060C  B63_2
 0003:00001CF0  B69_2
 0003:00001D08  B71_2
 0003:00001EF8  B77_2
 0003:0000788C  B811_2
 0003:00007A34  B857_2
 0003:00007A4C  B861_2
 0003:00007A64  B863_2
 0003:00007C10  B869_2
 0003:00001F30  B95_2
 0001:00047A08  C101_0
 0001:00047FD8  C105_0
 0001:000491A4  C109_0
 0001:000491B8  C111_0
 0001:000491D4  C117_0
 0001:0004924C  C119_0
 0001:0004924C  C119_3
 0001:0004934C  C121_0
 0001:0004934C  C121_3
 0001:00049398  C127_0
 0001:00049A0C  C133_0
 0001:00049B38  C135_0
 0001:00049CF4  C141_0
 0001:000B49F0  C1475_0
 0001:0004A18C  C147_0
 0001:000B4A18  C1481_0
 0001:000B4A48  C1489_0
 0001:0004A3FC  C149_0
 0001:0004C9C4  C151_0
 0001:0004CA74  C155_0
 0001:0004CB4C  C157_0
 0001:0004D6C4  C161_0
 0001:0004D82C  C163_0
 0001:000B4C04  C1684_0
 0001:000B4D50  C1692_0
 0001:000B4D70  C1696_0
 0001:000B4E30  C1696_2
 0001:000B4E4C  C1698_0
 0001:0004EA14  C171_0
 0001:000B4E50  C1730_0
 0001:000B5C0C  C1730_3
 0001:000B5C14  C1732_0
 0001:000B6758  C1734_0
 0001:000B67A4  C1754_0
 0001:000B680C  C1756_0
 0001:0004EF60  C175_0
 0001:000B6810  C1760_0
 0001:0004F12C  C181_0
 0001:000B6814  C1839_0
 0001:0004F380  C183_0
 0001:000B6848  C1841_0
 0001:000B68EC  C1849_0
 0001:000B693C  C1859_0
 0001:0004F4D4  C185_0
 0001:000B696C  C1861_0
 0001:000B6998  C1869_0
 0001:000B69F8  C1879_0
 0001:00050110  C187_0
 0001:000B6A38  C1893_0
 0001:000B6A50  C1939_0
 0001:00050184  C193_0
 0001:000B6A88  C1943_0
 0001:000B6AE0  C1945_0
 0001:000B6B4C  C1947_0
 0001:000B6B64  C1949_0
 0001:000B6C7C  C1951_0
 0001:00051F18  C195_0
 0001:000B6D30  C1965_0
 0001:000B6D90  C1967_0
 0001:000B6DE0  C1973_0
 0001:000B6E3C  C1975_0
 0001:000B6EB8  C1977_0
 0001:000B6F18  C1993_0
 0001:000B6FF8  C1995_0
 0001:000B7038  C1997_0
 0001:000B709C  C1999_0
 0001:00051FF0  C199_0
 0001:00000168  C1_0
 0001:000B70B0  C2001_0
 0001:000B71A0  C2003_0
 0001:000B7228  C2007_0
 0001:000B7270  C2009_0
 0001:000B72E8  C2011_0
 0001:000B74FC  C2013_0
 0001:000B7698  C2019_0
 0001:000520C0  C201_0
 0001:000B77B4  C2021_0
 0001:00052A58  C203_0
 0001:000B77C8  C2051_0
 0001:00052B60  C205_0
 0001:000B7840  C2069_0
 0001:000B78A4  C2071_0
 0001:000B7924  C2077_0
 0001:00052F50  C209_0
 0001:000B79C0  C2114_0
 0001:00052F78  C211_0
 0001:000B7A50  C2120_0
 0001:000B7AD0  C2139_0
 0001:000B7B2C  C2143_0
 0001:000B7B50  C2147_0
 0001:000B7D6C  C2151_0
 0001:000B7D90  C2161_0
 0001:00053EC0  C217_0
 0001:000B7E6C  C2185_0
 0001:00054178  C219_0
 0001:000B7FB8  C2221_0
 0001:000B8274  C2223_0
 0001:000B82F4  C2227_0
 0001:000B849C  C2235_0
 0001:000545A8  C223_0
 0001:000B85B8  C2243_0
 0001:000B864C  C2251_0
 0001:000547CC  C225_0
 0001:00054A50  C227_0
 0001:00054A54  C229_0
 0001:000B8670  C2301_0
 0001:000B86E0  C2303_0
 0001:000B8730  C2316_0
 0001:000B87A8  C2336_0
 0001:000B885C  C2336_1
 0001:00054B1C  C233_0
 0001:000B88AC  C2358_0
 0001:000B88C8  C2362_0
 0001:000B88EC  C2378_0
 0001:00054FB4  C243_0
 0001:000B9384  C2462_0
 0001:000B93A0  C2466_0
 0001:000B93D0  C2468_0
 0001:000B93F8  C2500_0
 0001:000B9400  C2504_0
 0001:000B9408  C2506_0
 0001:000557AC  C251_0
 0001:000B9410  C2528_0
 0001:000B9420  C2547_0
 0001:000B948C  C2554_0
 0001:000B95A4  C2556_0
 0001:000B96C0  C2558_0
 0001:00055FA8  C255_0
 0001:000B9760  C2560_0
 0001:00059D1C  C257_0
 0001:000B9848  C2598_0
 0001:000B9908  C2602_0
 0001:000B99C8  C2606_0
 0001:000BA04C  C2660_0
 0001:000BA2B4  C2678_0
 0001:000BA2D4  C2680_0
 0001:000BA2F4  C2684_0
 0001:000BA320  C2688_0
 0001:000BA368  C2690_0
 0001:000BA3B4  C2696_0
 0001:0005A1A8  C269_0
 0001:000BA464  C2702_0
 0001:000BA5E8  C2725_0
 0001:000BA660  C2733_0
 0001:000BA67C  C2737_0
 0001:000BA690  C2751_0
 0001:000BA6C0  C2753_0
 0001:000BA6D8  C2757_0
 0001:000BA6F0  C2759_0
 0001:0005A484  C275_0
 0001:000BA708  C2763_0
 0001:000BA720  C2767_0
 0001:000BA78C  C2775_0
 0001:000BA860  C2777_0
 0001:000BA8A8  C2795_0
 0001:000BA8F8  C2799_0
 0001:0005AAB0  C279_0
 0001:0000116C  C27_0
 0001:00005758  C27_3
 0001:000BA910  C2805_0
 0001:000BA940  C2807_0
 0001:000BA970  C2809_0
 0001:000BA994  C2811_0
 0001:0005AF30  C281_0
 0001:000BA9A8  C2827_0
 0001:000BAA5C  C2837_0
 0001:0005B3B8  C283_0
 0001:000BAB78  C2843_0
 0001:000BABE8  C2851_0
 0001:000BAC78  C2859_0
 0001:0005B4D4  C285_0
 0001:000BACF0  C2865_0
 0001:000BAD20  C2867_0
 0001:000BAD38  C2873_0
 0001:000BAD68  C2875_0
 0001:000BAD98  C2881_0
 0001:000BAF74  C2889_0
 0001:000BAF9C  C2891_0
 0001:000BAFCC  C2893_0
 0001:000BAFE8  C2893_2
 0001:000BB050  C2895_0
 0001:000BB34C  C2897_0
 0001:0005B974  C289_0
 0001:000BB680  C2902_0
 0001:000BB6AC  C2904_0
 0001:000BBB98  C2906_0
 0001:000BC090  C2916_0
 0001:0005BC14  C291_0
 0001:0005BCE0  C293_0
 0001:000BC0CC  C2958_0
 0001:000BC3A4  C2960_0
 0001:000BC69C  C2974_0
 0001:000BC7DC  C2974_3
 0001:000BC7EC  C2976_0
 0001:0005BD74  C297_0
 0001:000BC82C  C2980_0
 0001:000BC848  C2998_0
 0001:0005C7F4  C299_0
 0001:00005E50  C29_0
 0001:000002CC  C2_0
 0001:000002CC  C2_3
 0001:000BC864  C3036_0
 0001:000BC8B8  C3038_0
 0001:0005C944  C303_0
 0001:000BC978  C3060_0
 0001:0005CFEC  C309_0
 0001:000BC9D0  C3114_0
 0001:000BCA78  C3132_0
 0001:000BCB34  C3134_0
 0001:000BCB3C  C3136_0
 0001:0005D280  C313_0
 0001:000BCCDC  C3148_0
 0001:000BCF14  C3163_0
 0001:000BCF14  C3163_3
 0001:000BD258  C3167_0
 0001:000BD300  C3169_0
 0001:0005D568  C317_0
 0001:0005D6E8  C319_0
 0001:0000C0D0  C31_0
 0001:000BD420  C3205_0
 0001:000BD468  C3207_0
 0001:000BD4D0  C3209_0
 0001:000BD538  C3217_0
 0001:000BD554  C3219_0
 0001:000BD568  C3221_0
 0001:000BD57C  C3227_0
 0001:000BD5A4  C3233_0
 0001:000BD5A4  C3233_3
 0001:000BD62C  C3233_4
 0001:000BD710  C3235_0
 0001:000BD934  C3237_0
 0001:0005D75C  C327_0
 0001:000BDBA4  C3294_0
 0001:000BDBA4  C3294_2
 0001:000BDBDC  C3294_3
 0001:0005D764  C329_0
 0001:000BDBEC  C3306_0
 0001:000BDD6C  C3306_3
 0001:000BDBEC  C3306_4
 0001:0005D8A8  C331_0
 0001:000BDD8C  C3320_0
 0001:000BE088  C3335_0
 0001:000BE1AC  C3339_0
 0001:0005D9B8  C333_0
 0001:000BE318  C3355_0
 0001:0005DAC0  C335_0
 0001:000BE368  C3379_0
 0001:000BE6D4  C3381_0
 0001:000BE6D4  C3381_2
 0001:000BE6DC  C3383_0
 0001:000BE8CC  C3385_0
 0001:000BE8D4  C3411_0
 0001:000BE924  C3415_0
 0001:000BE994  C3419_0
 0001:000BEE93  C3419_3
 0001:000BEAEB  C3419_4
 0001:000BEEBF  C3419_5
 0001:0005E7B0  C341_0
 0001:000BF240  C3423_0
 0001:000BF240  C3423_4
 0001:000BF388  C3425_0
 0001:000BF394  C3429_0
 0001:000BF4EC  C3429_3
 0001:000BF504  C3429_4
 0001:000BF52C  C3431_0
 0001:000BF574  C3433_0
 0001:0005E8A8  C345_0
 0001:000BF5A8  C3462_0
 0001:000BF5A8  C3462_3
 0001:0005E9D8  C347_0
 0001:0005EA6C  C349_0
 0001:0005EBA0  C353_0
 0001:0005ED9C  C355_0
 0001:0005EF70  C357_0
 0001:0005F1E4  C359_0
 0001:0000F2AC  C35_0
 0001:0000F2AC  C35_3
 0001:0005F4B0  C367_0
 0001:0006069C  C369_0
 0001:000607F4  C371_0
 0001:00060858  C373_0
 0001:00060DF8  C375_0
 0001:00060E88  C377_0
 0001:00060EB4  C383_0
 0001:00060F3C  C385_0
 0001:00061238  C387_0
 0001:00061478  C391_0
 0001:000617B0  C393_0
 0001:000618F4  C395_0
 0001:0006192C  C397_0
 0001:00061FBC  C401_0
 0001:000622E0  C403_0
 0001:00062424  C405_0
 0001:000625A4  C407_0
 0001:000626F8  C411_0
 0001:0006386C  C413_0
 0001:00063A1C  C415_0
 0001:0006571C  C417_0
 0001:0000F668  C41_0
 0001:0006597C  C421_0
 0001:000659F4  C423_0
 0001:00065A94  C427_0
 0001:00065EC4  C429_0
 0001:00066258  C431_0
 0001:000662A4  C433_0
 0001:00066300  C435_0
 0001:0001139C  C43_0
 0001:000663E4  C441_0
 0001:000663E4  C441_3
 0001:00066458  C455_0
 0001:00066458  C455_3
 0001:000665A8  C457_0
 0001:000665A8  C457_3
 0001:0001498C  C45_0
 0001:0006670C  C477_0
 0001:0006670C  C477_3
 0001:00015014  C47_0
 0001:00066918  C481_0
 0001:00066918  C481_3
 0001:000669A0  C483_0
 0001:000669A0  C483_3
 0001:00066BA4  C499_0
 0001:00066BA4  C499_3
 0001:00066BF0  C503_0
 0001:00066BF0  C503_3
 0001:00066CF0  C505_0
 0001:00066CF0  C505_3
 0001:0001AB08  C51_0
 0001:00066ECC  C537_0
 0001:00066ECC  C537_3
 0001:0006755C  C539_0
 0001:0006755C  C539_3
 0001:00067760  C545_0
 0001:00067760  C545_3
 0001:00067B34  C547_0
 0001:00067B34  C547_3
 0001:00067BA8  C549_0
 0001:00067BA8  C549_3
 0001:00067E00  C555_0
 0001:00067E00  C555_3
 0001:00067FA4  C559_0
 0001:00067FA4  C559_3
 0001:00068004  C567_0
 0001:00068004  C567_3
 0001:0001ADEC  C59_0
 0001:0001B580  C61_0
 0001:00068274  C623_0
 0001:0006ACAC  C625_0
 0001:0006B008  C627_0
 0001:00070D88  C629_0
 0001:0007163C  C631_0
 0001:0001D718  C63_0
 0001:000739A8  C645_0
 0001:000739E8  C647_0
 0001:00073DC8  C649_0
 0001:00073EC0  C653_0
 0001:0007448C  C655_0
 0001:00075B2C  C657_0
 0001:000775D0  C659_0
 0001:0001E224  C65_0
 0001:000777F8  C661_0
 0001:00078850  C663_0
 0001:0007936C  C665_0
 0001:0007A9B4  C667_0
 0001:0007AA14  C669_0
 0001:0007C330  C671_0
 0001:0007C4B4  C695_0
 0001:0007C4B8  C695_2
 0001:0001ECD8  C69_0
 0001:00020A44  C71_0
 0001:000249C0  C71_3
 0001:00024C1C  C73_0
 0001:00025ABC  C75_0
 0001:00028FA0  C77_0
 0001:0007C4C4  C787_0
 0001:0007FCB8  C789_0
 0001:0003C254  C79_0
 0001:0008091C  C805_0
 0001:00082F1C  C807_0
 0001:00083788  C809_0
 0001:00084C3C  C811_0
 0001:0008D0F8  C811_3
 0001:0008D130  C811_4
 0001:0003C284  C81_0
 0001:0003E3BC  C83_0
 0001:0008D140  C845_0
 0001:0008D7EC  C857_0
 0001:0008D7EC  C857_3
 0001:0003ED14  C85_0
 0001:0008D8C4  C861_0
 0001:0008D8C4  C861_3
 0001:0008D910  C863_0
 0001:000984AC  C863_3
 0001:000984E4  C863_4
 0001:000984F4  C869_0
 0001:0009FB50  C869_3
 0001:0009FB88  C869_4
 0001:000409C8  C87_0
 0001:000427F8  C89_0
 0001:0009FB98  C901_0
 0001:000A7990  C907_0
 0001:000B3238  C909_0
 0001:000B3498  C917_0
 0001:000B3880  C919_0
 0001:00042824  C91_0
 0001:000B38D0  C927_0
 0001:000B3D44  C929_0
 0001:000B3D5C  C933_0
 0001:000B4170  C935_0
 0001:000B4538  C943_0
 0001:000B48F8  C945_0
 0001:00042B7C  C95_0
 0001:000477A0  C99_0
 0002:00012114  D101_1
 0002:00012234  D105_1
 0002:00012314  D111_1
 0002:00012874  D117_1
 0002:0001287C  D119_1
 0002:00012CB4  D121_1
 0002:00012CF8  D127_1
 0002:00012D08  D133_1
 0002:00012D10  D135_1
 0002:00012D14  D141_1
 0002:0003C6D4  D1475_1
 0002:00012D20  D147_1
 0002:0003C6E4  D1481_1
 0002:0003C6F4  D1489_1
 0002:0003C6FC  D1493_1
 0002:00012D2C  D149_1
 0002:000131DC  D151_1
 0002:000131E4  D155_1
 0002:000131E8  D157_1
 0002:00013228  D161_1
 0002:00013238  D163_1
 0002:0003C774  D1684_1
 0002:0003C884  D1696_1
 0002:0003C8A8  D1710_0
 0002:00013294  D171_1
 0002:0003C8AC  D1730_1
 0002:000132A8  D175_1
 0002:000132CC  D183_1
 0002:0003D060  D1841_1
 0002:000132D0  D185_1
 0002:0001331C  D193_1
 0002:00000000  D1_1
 0002:0003D074  D2001_1
 0002:00013334  D201_1
 0002:0003D080  D2021_1
 0002:0003D084  D2053_1
 0002:00013338  D205_1
 0002:0003D088  D2073_0
 0002:0001333C  D211_1
 0002:0003D08C  D2131_0
 0002:0003D53C  D2133_0
 0002:0003D608  D2141_0
 0002:0003D60C  D2143_1
 0002:00013358  D219_1
 0002:0003D610  D2223_1
 0002:0003D73C  D2243_1
 0002:0003D748  D2249_1
 0002:00013388  D233_1
 0002:0003DBDC  D2378_1
 0002:000133E8  D243_1
 0002:00013748  D251_1
 0002:0003DC54  D2536_0
 0002:0003DE58  D2542_0
 0002:0003DF58  D2546_0
 0002:00013768  D255_1
 0002:0003E058  D2564_0
 0002:000139FC  D257_1
 0002:0003E2B4  D2696_1
 0002:00013A20  D269_1
 0002:0003E2C4  D2702_1
 0002:0003E384  D2757_1
 0002:0003E3EC  D2759_1
 0002:00013A24  D275_1
 0002:0003E454  D2761_0
 0002:0003E458  D2767_1
 0002:0003E464  D2775_1
 0002:0003E478  D2777_1
 0002:00013A28  D279_1
 0002:0000E8B8  D27_1
 0002:0003E490  D2815_0
 0002:00013A40  D281_1
 0002:0003E50C  D2825_0
 0002:0003E514  D2843_1
 0002:0003E520  D2867_1
 0002:0003E528  D2871_0
 0002:0003E56C  D2881_1
 0002:0003E588  D2893_1
 0002:0003E590  D2895_1
 0002:0003E5A4  D2897_1
 0002:00013A4C  D289_1
 0002:0003E5CC  D2904_1
 0002:0003E5F4  D2906_1
 0002:0003E61C  D2916_1
 0002:00013AAC  D291_1
 0002:00013AB4  D293_1
 0002:0003E62C  D2974_1
 0002:00013AB8  D297_1
 0002:0000EB54  D29_1
 0002:000000C8  D2_1
 0002:00013C0C  D303_1
 0002:0003E674  D3114_1
 0002:0003E698  D3132_1
 0002:0003E6BC  D3134_1
 0002:0003E6C0  D3136_1
 0002:0003E6E8  D3167_1
 0002:00013C14  D317_1
 0002:0000EC70  D31_1
 0002:0003E724  D3205_1
 0002:0003E730  D3229_0
 0002:0003E738  D3231_0
 0002:0003E740  D3233_1
 0002:0003E794  D3235_1
 0002:0003E7BC  D3237_1
 0002:0003E7E0  D3290_0
 0002:0003E7E4  D3292_0
 0002:0003E7E8  D3294_1
 0002:00013C4C  D329_1
 0002:0003E808  D3306_1
 0002:00013C50  D331_1
 0002:0003E85C  D3320_1
 0002:0003E8BC  D3334_0
 0002:0003E8C0  D3335_1
 0002:00013C54  D333_1
 0002:00013C58  D335_1
 0002:0003E8C4  D3375_0
 0002:0003EA88  D3379_1
 0002:0003EA90  D3381_1
 0002:0003EA98  D3383_1
 0002:0003EAAC  D3417_0
 0002:0003EAB0  D3419_1
 0002:0003EE10  D3421_1
 0002:0003EE18  D3423_1
 0002:0003EF00  D3429_1
 0002:00013D3C  D345_1
 0002:0003EF10  D3462_1
 0002:00013D48  D347_1
 0002:00013D50  D349_1
 0002:00013D5C  D359_1
 0002:0000ED30  D35_1
 0002:00013D64  D367_1
 0002:00013E38  D369_1
 0002:00013E3C  D383_1
 0002:00013E44  D385_1
 0002:00013E48  D387_1
 0002:00013E4C  D391_1
 0002:00013E58  D393_1
 0002:00013E5C  D401_1
 0002:00013E68  D403_1
 0002:00013E74  D405_1
 0002:00013E78  D407_1
 0002:00013E80  D411_1
 0002:00013F40  D413_1
 0002:00013F70  D415_1
 0002:000140E0  D417_1
 0002:0001051C  D41_1
 0002:000140F0  D421_1
 0002:000140F8  D427_1
 0002:00014104  D429_1
 0002:00014124  D431_1
 0002:0001412C  D433_1
 0002:00014134  D435_1
 0002:00010564  D43_1
 0002:00014138  D441_1
 0002:000145FC  D455_1
 0002:00014CA8  D457_1
 0002:00016334  D477_1
 0002:000106C8  D47_1
 0002:00018A04  D481_1
 0002:00018B10  D483_1
 0002:00019908  D499_1
 0002:000199E4  D503_1
 0002:0001A5BC  D505_1
 0002:00010C88  D51_1
 0002:0001B5D4  D537_1
 0002:000259AC  D539_1
 0002:00027128  D545_1
 0002:0002D8FC  D547_1
 0002:0002DC7C  D549_1
 0002:0003180C  D555_1
 0002:000323E0  D559_1
 0002:00032874  D567_1
 0002:00010CBC  D59_1
 0002:00010CD8  D61_1
 0002:00033FF4  D623_1
 0002:000360F8  D625_1
 0002:00036138  D627_1
 0002:000362A8  D631_1
 0002:00010ED8  D63_1
 0002:00036FC0  D647_1
 0002:00036FC8  D649_1
 0002:00037008  D655_1
 0002:0003769C  D657_1
 0002:000376C8  D659_1
 0002:00011058  D65_1
 0002:00037788  D661_1
 0002:000388A0  D663_1
 0002:00038A5C  D667_1
 0002:00038CB8  D669_1
 0002:00038D4C  D695_1
 0002:00011074  D69_1
 0002:00011078  D71_1
 0002:000110F0  D73_1
 0002:00011138  D75_1
 0002:00011460  D77_1
 0002:000396EC  D787_1
 0002:00039704  D805_1
 0002:000398E4  D807_1
 0002:00039918  D809_1
 0002:00039948  D811_1
 0002:00011DA8  D81_1
 0002:00011DDC  D83_1
 0002:00039BE8  D857_1
 0002:00011EA0  D85_1
 0002:00039ECC  D861_1
 0002:00039F40  D863_1
 0002:0003A3E0  D869_1
 0002:00011ECC  D87_1
 0002:0003A660  D899_0
 0002:0003AAA0  D901_1
 0002:0003B9F8  D907_1
 0002:0003BA04  D913_0
 0002:00011FF8  D91_1
 0002:0003BA18  D925_0
 0002:0003C3DC  D929_1
 0002:0003C400  D935_1
 0002:00012054  D95_1
 0002:000120F8  D99_1
 0001:000B4C08  DefaultAllocMem
 0001:000B4C04  DefaultRegisterAndUnregisterExpectedMemoryLeak
 0001:000667D0  PRGUnhandledExceptionFilter
 0001:000002B2  Sysinit::__linkproc__ __fastcall GetTls()
 0004:00000000  T3423_3
 0001:00049A0C  WinMain
 0001:000123DC  _ArrayToStructure
 0002:0003E164  _CLOCALE
 0002:0003E058  _CMonetary
 0002:0003E08C  _CNumeric
 0002:0003E0A2  _CTimeDate
 0001:000C0C6C  _CatchCleanup()
 0001:000B6724  _FastMM_AllocMem
 0001:000B4F60  _FastMM_AllocNewSequentialFeedMediumPool
 0001:000B4FEC  _FastMM_AllocateLargeBlock
 0001:000B5810  _FastMM_AttemptToUseSharedMemoryManager
 0001:000B5E23  _FastMM_BinMediumSequentialFeedRemainder
 0001:000B5668  _FastMM_CanResizeInplace
 0001:000B5B78  _FastMM_FinalizeMemoryManager
 0001:000B504C  _FastMM_FreeLargeBlock
 0001:000B6212  _FastMM_FreeMem
 0001:000B54EC  _FastMM_GetHeapStatus
 0001:000B5E8E  _FastMM_GetMem
 0001:000B5630  _FastMM_GetMemBlockSize
 0001:000B52D8  _FastMM_GetMemoryManagerState
 0001:000B5408  _FastMM_GetMemoryMap
 0001:000B5934  _FastMM_GetMinimumBlockAlignment
 0001:000B595C  _FastMM_InitializeMemoryManager
 0001:000B5DC3  _FastMM_InsertMediumBlockIntoBin
 0001:000B4E68  _FastMM_IsMemoryManagerSet
 0001:000B5C14  _FastMM_LockCmpxchg
 0001:000B5C19  _FastMM_Move12
 0001:000B5C2A  _FastMM_Move20
 0001:000B5C47  _FastMM_Move28
 0001:000B5C70  _FastMM_Move36
 0001:000B5C8D  _FastMM_Move44
 0001:000B5CB0  _FastMM_Move52
 0001:000B5CD9  _FastMM_Move60
 0001:000B5D08  _FastMM_Move68
 0001:000B5D3D  _FastMM_MoveX16L4
 0001:000B5D6A  _FastMM_MoveX8L4
 0001:000B640A  _FastMM_ReallocMem
 0001:000B50E4  _FastMM_ReallocateLargeBlock
 0001:000B5D85  _FastMM_RemoveMediumFreeBlock
 0001:000B4E50  _FastMM_SetMemoryManager
 0001:000B593C  _FastMM_SetMinimumBlockAlignment
 0001:000B5878  _FastMM_ShareMemoryManager
 0001:000557AC  _GetOldesFile
 0001:00011480  _HB_FUN_AADD
 0001:00049B38  _HB_FUN_ABS
 0001:00066B7C  _HB_FUN_ACCELERATOR
 0001:00011D9C  _HB_FUN_ACLONE
 0001:00011CA0  _HB_FUN_ACOPY
 0001:00011860  _HB_FUN_ADEL
 0001:00011B90  _HB_FUN_AEVAL
 0001:0007C4C4  _HB_FUN_AFIELDS
 0001:00011918  _HB_FUN_AFILL
 0001:00011780  _HB_FUN_AINS
 0001:00011734  _HB_FUN_ALENALLOC
 0001:0006641C  _HB_FUN_ALERT
 0001:0007C734  _HB_FUN_ALIAS
 0001:000658C4  _HB_FUN_ALLTRIM
 0001:00014868  _HB_FUN_AMERGE
 0001:00066594  _HB_FUN_APPLYDEFAU
 0001:00014860  _HB_FUN_AREMOVE
 0001:000113F4  _HB_FUN_ARRAY
 0001:0004CA1C  _HB_FUN_ASC
 0001:00011AD8  _HB_FUN_ASCAN
 0001:00011608  _HB_FUN_ASIZE
 0001:000116CC  _HB_FUN_ASIZEALLOC
 0001:00014F80  _HB_FUN_ASORT
 0001:00014568  _HB_FUN_ASPLICE
 0001:00049CF4  _HB_FUN_AT
 0001:0001175C  _HB_FUN_ATAIL
 0001:0004A04C  _HB_FUN_ATI
 0001:00049FAC  _HB_FUN_ATSKIPSTRINGS
 0001:00080844  _HB_FUN_BLOBEXPORT
 0001:00080914  _HB_FUN_BLOBIMPORT
 0001:0007C9E8  _HB_FUN_BOF
 0001:000491A4  _HB_FUN_BREAK
 0001:0006656C  _HB_FUN_BUTTNDEFCO
 0001:0004D78C  _HB_FUN_CDOW
 0001:00066558  _HB_FUN_CHECKDEFCO
 0001:0004C9C4  _HB_FUN_CHR
 0001:000492AC  _HB_FUN_CLIPINIT
 0001:00049284  _HB_FUN_CLIPPER520
 0001:00049298  _HB_FUN_CLIPPER530
 0001:0004D714  _HB_FUN_CMONTH
 0001:00060E5C  _HB_FUN_COL
 0001:000606E4  _HB_FUN_COLORSELECT
 0001:00066544  _HB_FUN_COMBODEFCO
 0001:000665E0  _HB_FUN_CSTR
 0001:000665F4  _HB_FUN_CSTRTOVAL
 0001:0004DDD4  _HB_FUN_CTOD
 0001:0004E648  _HB_FUN_CTOT
 0001:0005E044  _HB_FUN_CURDIR
 0001:0005E114  _HB_FUN_CURDIRX
 0001:0004E1E8  _HB_FUN_DATE
 0001:0004E27C  _HB_FUN_DATETIME
 0001:0004E0C4  _HB_FUN_DAY
 0001:0005ECD4  _HB_FUN_DAYS
 0001:0007CA24  _HB_FUN_DBAPPEND
 0001:0007CAA0  _HB_FUN_DBCLEARFILTER
 0001:0008D84C  _HB_FUN_DBCLEARINDEX
 0001:0007EE8C  _HB_FUN_DBCLEARRELATION
 0001:0007CAC8  _HB_FUN_DBCLOSEALL
 0001:0007CAD0  _HB_FUN_DBCLOSEAREA
 0001:0007CAD8  _HB_FUN_DBCOMMIT
 0001:0007CB00  _HB_FUN_DBCOMMITALL
 0001:0007CB08  _HB_FUN_DBCREATE
 0001:0008D824  _HB_FUN_DBCREATEINDEX
 0001:0007CFB4  _HB_FUN_DBDELETE
 0001:0007C784  _HB_FUN_DBEVAL
 0001:0007C9A4  _HB_FUN_DBF
 0001:0009FA60  _HB_FUN_DBFBLOB
 0001:0009FAF0  _HB_FUN_DBFBLOB_GETFUNCTABLE
 0001:0009FA54  _HB_FUN_DBFDBT
 0001:0009FA5C  _HB_FUN_DBFFPT
 0001:0009FAE4  _HB_FUN_DBFFPT_GETFUNCTABLE
 0001:00080630  _HB_FUN_DBFIELDINFO
 0001:00080768  _HB_FUN_DBFILEGET
 0001:0008084C  _HB_FUN_DBFILEPUT
 0001:0007CFDC  _HB_FUN_DBFILTER
 0001:00098398  _HB_FUN_DBFNTX
 0001:0009839C  _HB_FUN_DBFNTX_GETFUNCTABLE
 0001:0009FA58  _HB_FUN_DBFSMT
 0001:0008D06C  _HB_FUN_DBF_GETFUNCTABLE
 0001:0007D024  _HB_FUN_DBGOBOTTOM
 0001:0007D04C  _HB_FUN_DBGOTO
 0001:0007D0A0  _HB_FUN_DBGOTOP
 0001:000804BC  _HB_FUN_DBINFO
 0001:0008053C  _HB_FUN_DBORDERINFO
 0001:0007D2DC  _HB_FUN_DBRECALL
 0001:000806D8  _HB_FUN_DBRECORDINFO
 0001:0008D860  _HB_FUN_DBREINDEX
 0001:0007EDF4  _HB_FUN_DBRELATION
 0001:0007D304  _HB_FUN_DBRLOCK
 0001:0007D3AC  _HB_FUN_DBRLOCKLIST
 0001:0007EE4C  _HB_FUN_DBRSELECT
 0001:0007D3F4  _HB_FUN_DBRUNLOCK
 0001:0007D430  _HB_FUN_DBSEEK
 0001:0007D53C  _HB_FUN_DBSELECTAREA
 0001:0007EC80  _HB_FUN_DBSETDRIVER
 0001:0007D5B4  _HB_FUN_DBSETFILTER
 0001:0008D838  _HB_FUN_DBSETINDEX
 0001:0008D874  _HB_FUN_DBSETORDER
 0001:0007EEA0  _HB_FUN_DBSETRELATION
 0001:0007D664  _HB_FUN_DBSKIP
 0001:0007D6B0  _HB_FUN_DBSTRUCT
 0001:0007D6DC  _HB_FUN_DBTABLEEXT
 0001:0007D758  _HB_FUN_DBUNLOCK
 0001:0007D784  _HB_FUN_DBUNLOCKALL
 0001:0007D78C  _HB_FUN_DBUSEAREA
 0001:0007D90C  _HB_FUN_DELETED
 0001:0000F334  _HB_FUN_DELPAINT
 0001:0004D330  _HB_FUN_DEVOUT
 0001:0004D290  _HB_FUN_DEVPOS
 0001:0004ECF0  _HB_FUN_DIRCHANGE
 0001:0004EDB8  _HB_FUN_DIRREMOVE
 0001:00051F10  _HB_FUN_DISABLEWAITLOCKS
 0001:0004EEA4  _HB_FUN_DISKCHANGE
 0001:0004EF2C  _HB_FUN_DISKNAME
 0001:0004EF60  _HB_FUN_DISKSPACE
 0001:00052F50  _HB_FUN_DISPBEGIN
 0001:0004A18C  _HB_FUN_DISPBOX
 0001:00052F60  _HB_FUN_DISPCOUNT
 0001:00052F58  _HB_FUN_DISPEND
 0001:0004D3DC  _HB_FUN_DISPOUT
 0001:0004D4B0  _HB_FUN_DISPOUTAT
 0001:0001C414  _HB_FUN_DOSERROR
 0001:0004E224  _HB_FUN_DOW
 0001:0004DE64  _HB_FUN_DTOC
 0001:0004DEDC  _HB_FUN_DTOS
 0001:0005ECF4  _HB_FUN_ELAPTIME
 0001:0004F12C  _HB_FUN_EMPTY
 0001:0007D948  _HB_FUN_EOF
 0001:0001C390  _HB_FUN_ERRORBLOCK
 0001:00038B08  _HB_FUN_ERRORLEVEL
 0001:0001C184  _HB_FUN_ERRORNEW
 0001:00066744  _HB_FUN_ERRORSYS
 0001:0005C4D8  _HB_FUN_EXP
 0001:00052914  _HB_FUN_FCHARCOUNT
 0001:0005DDE4  _HB_FUN_FCLOSE
 0001:0007D984  _HB_FUN_FCOUNT
 0001:0005DB40  _HB_FUN_FCREATE
 0001:0005DE48  _HB_FUN_FERASE
 0001:0005DDBC  _HB_FUN_FERROR
 0001:0007D9B4  _HB_FUN_FIELDGET
 0001:0007D9F0  _HB_FUN_FIELDNAME
 0001:0007DA70  _HB_FUN_FIELDPOS
 0001:0007DAC0  _HB_FUN_FIELDPUT
 0001:00050110  _HB_FUN_FILE
 0001:00052870  _HB_FUN_FLINECOUNT
 0001:0007DB14  _HB_FUN_FLOCK
 0001:0005DAC0  _HB_FUN_FOPEN
 0001:0007DB7C  _HB_FUN_FOUND
 0001:000524A0  _HB_FUN_FPARSE
 0001:00052638  _HB_FUN_FPARSEEX
 0001:000529CC  _HB_FUN_FPARSELINE
 0001:0005DC50  _HB_FUN_FREAD
 0001:0005DF9C  _HB_FUN_FREADSTR
 0001:0005DEA0  _HB_FUN_FRENAME
 0001:0005DF0C  _HB_FUN_FSEEK
 0001:0005276C  _HB_FUN_FWORDCOUNT
 0001:0005DD18  _HB_FUN_FWRITE
 0001:0006779C  _HB_FUN_GET
 0001:00066A00  _HB_FUN_GETACTIVE
 0001:00066A28  _HB_FUN_GETAPPLYKEY
 0001:000664F4  _HB_FUN_GETCLRBACK
 0001:000664E0  _HB_FUN_GETCLRFORE
 0001:00066490  _HB_FUN_GETCLRPAIR
 0001:00062A0C  _HB_FUN_GETDEFAULTPRINTER
 0001:00066A14  _HB_FUN_GETDOSETKEY
 0001:00066C8C  _HB_FUN_GETMSSGLINE
 0001:00067B6C  _HB_FUN_GETNEW
 0001:0000F320  _HB_FUN_GETPAINT
 0001:000664CC  _HB_FUN_GETPAIRLEN
 0001:000664B8  _HB_FUN_GETPAIRPOS
 0001:00066A50  _HB_FUN_GETPOSTVALIDATE
 0001:00066A3C  _HB_FUN_GETPREVALIDATE
 0001:00063170  _HB_FUN_GETPRINTERS
 0001:000669EC  _HB_FUN_GETREADER
 0001:00066B04  _HB_FUN_GUIAPPLYKEY
 0001:00066B2C  _HB_FUN_GUIGETPOSTVALIDATE
 0001:00066B18  _HB_FUN_GUIGETPREVALIDATE
 0001:00066AF0  _HB_FUN_GUIREADER
 0001:0002826C  _HB_FUN_HAADELAT
 0001:00027BAC  _HB_FUN_HAAGETKEYAT
 0001:000277D8  _HB_FUN_HAAGETPOS
 0001:00028E78  _HB_FUN_HAAGETREALPOS
 0001:00027D54  _HB_FUN_HAAGETVALUEAT
 0001:00027F18  _HB_FUN_HAASETVALUEAT
 0001:00028D34  _HB_FUN_HALLOCATE
 0001:00027640  _HB_FUN_HASH
 0001:00067F00  _HB_FUN_HASHADDMEMBER
 0001:00067EC4  _HB_FUN_HASHENTRY
 0001:00067594  _HB_FUN_HBCLASS
 0001:0004D6AC  _HB_FUN_HBCONSOLELOCK
 0001:0004D6B8  _HB_FUN_HBCONSOLEUNLOCK
 0001:00067BE4  _HB_FUN_HBGETLIST
 0001:00067E38  _HB_FUN_HBOBJECT
 0001:00011E2C  _HB_FUN_HB_AEXPRESSIONS
 0001:00011858  _HB_FUN_HB_AINS
 0001:00011DD8  _HB_FUN_HB_APARAMS
 0001:00047D84  _HB_FUN_HB_ARGC
 0001:00047CE8  _HB_FUN_HB_ARGCHECK
 0001:00047D2C  _HB_FUN_HB_ARGSTRING
 0001:00047D9C  _HB_FUN_HB_ARGV
 0001:00011594  _HB_FUN_HB_ARRAYID
 0001:00013758  _HB_FUN_HB_ARRAYTOSTRUCTURE
 0001:0005AA28  _HB_FUN_HB_ATOKENS
 0001:000601E4  _HB_FUN_HB_ATX
 0001:00049944  _HB_FUN_HB_BACKGROUNDACTIVE
 0001:00049868  _HB_FUN_HB_BACKGROUNDADD
 0001:000498F8  _HB_FUN_HB_BACKGROUNDDEL
 0001:00049860  _HB_FUN_HB_BACKGROUNDRESET
 0001:00049810  _HB_FUN_HB_BACKGROUNDRUN
 0001:0004983C  _HB_FUN_HB_BACKGROUNDRUNFORCED
 0001:000499B0  _HB_FUN_HB_BACKGROUNDTIME
 0001:00054B9C  _HB_FUN_HB_BITAND
 0001:00054D7C  _HB_FUN_HB_BITISSET
 0001:00054D1C  _HB_FUN_HB_BITNOT
 0001:00054C1C  _HB_FUN_HB_BITOR
 0001:00054E6C  _HB_FUN_HB_BITRESET
 0001:00054DE8  _HB_FUN_HB_BITSET
 0001:00054EF4  _HB_FUN_HB_BITSHIFT
 0001:00054C9C  _HB_FUN_HB_BITXOR
 0001:00065F54  _HB_FUN_HB_BUILDDATE
 0001:00065F78  _HB_FUN_HB_BUILDINFO
 0001:0004C134  _HB_FUN_HB_CDPLIST
 0001:0004C000  _HB_FUN_HB_CDPSELECT
 0001:0004C038  _HB_FUN_HB_CDPUNIID
 0001:0005F378  _HB_FUN_HB_CLOCKS2SECS
 0001:0005E628  _HB_FUN_HB_CLOSEPROCESS
 0001:00047FC0  _HB_FUN_HB_CMDARGARGV
 0001:0004A3FC  _HB_FUN_HB_CODEPAGE_EN
 0001:0004CA74  _HB_FUN_HB_COLORINDEX
 0001:00060750  _HB_FUN_HB_COLORTON
 0001:00065EE8  _HB_FUN_HB_COMPILER
 0001:0007CCB0  _HB_FUN_HB_DBCREATETEMP
 0001:0007F8C8  _HB_FUN_HB_DBDROP
 0001:0007F968  _HB_FUN_HB_DBEXISTS
 0001:0003C074  _HB_FUN_HB_DBG_INVOKEDEBUG
 0001:0003C15C  _HB_FUN_HB_DBG_PROCLEVEL
 0001:0003C1C0  _HB_FUN_HB_DBG_VMVARGGET
 0001:0003C19C  _HB_FUN_HB_DBG_VMVARGLIST
 0001:0003C1E4  _HB_FUN_HB_DBG_VMVARGSET
 0001:0003C100  _HB_FUN_HB_DBG_VMVARSGET
 0001:0003C0E4  _HB_FUN_HB_DBG_VMVARSLEN
 0001:0003C0C0  _HB_FUN_HB_DBG_VMVARSLIST
 0001:0003C124  _HB_FUN_HB_DBG_VMVARSSET
 0001:0007FA08  _HB_FUN_HB_DBRENAME
 0001:00052F14  _HB_FUN_HB_DIRTEMP
 0001:00051EBC  _HB_FUN_HB_DISABLEWAITLOCKS
 0001:0004EC58  _HB_FUN_HB_DISKREADY
 0001:0004ECE8  _HB_FUN_HB_DISKREADYW
 0001:0004A30C  _HB_FUN_HB_DISPBOX
 0001:0004D5A4  _HB_FUN_HB_DISPOUTAT
 0001:00049384  _HB_FUN_HB_ERROR_MT
 0001:0001EBC4  _HB_FUN_HB_EXEC
 0001:0001E6F4  _HB_FUN_HB_EXECFROMARRAY
 0001:0005E1CC  _HB_FUN_HB_FCOMMIT
 0001:0005DBB8  _HB_FUN_HB_FCREATE
 0001:0007FB38  _HB_FUN_HB_FIELDDEC
 0001:0007FBF8  _HB_FUN_HB_FIELDFLAG
 0001:0007FAD8  _HB_FUN_HB_FIELDLEN
 0001:0007FC58  _HB_FUN_HB_FIELDSTEP
 0001:0007FB98  _HB_FUN_HB_FIELDTYPE
 0001:00061F58  _HB_FUN_HB_FILEMATCH
 0001:0005E200  _HB_FUN_HB_FLOCK
 0001:00024BA8  _HB_FUN_HB_FM_NOSTAT
 0001:00052064  _HB_FUN_HB_FNAMEMERGE
 0001:00051FF0  _HB_FUN_HB_FNAMESPLIT
 0001:00060694  _HB_FUN_HB_FORCELINK_PCREPOS
 0001:00052B0C  _HB_FUN_HB_FSIZE
 0001:00052D90  _HB_FUN_HB_FTEMPCREATE
 0001:00052E1C  _HB_FUN_HB_FTEMPCREATEEX
 0001:00039000  _HB_FUN_HB_FUNCPTR
 0001:0005E29C  _HB_FUN_HB_FUNLOCK
 0001:0005E0B0  _HB_FUN_HB_F_EOF
 0001:00025A98  _HB_FUN_HB_GCALL
 0001:00025AA8  _HB_FUN_HB_GCALLOCATED
 0001:00025A90  _HB_FUN_HB_GCSTEP
 0001:000479F4  _HB_FUN_HB_GETCURRENTPROCESSID
 0001:0004D694  _HB_FUN_HB_GETSTDERR
 0001:0004D664  _HB_FUN_HB_GETSTDIN
 0001:0004D67C  _HB_FUN_HB_GETSTDOUT
 0001:00054458  _HB_FUN_HB_GFXPRIMITIVE
 0001:0005450C  _HB_FUN_HB_GFXTEXT
 0001:000543B0  _HB_FUN_HB_GTALERT
 0001:00054318  _HB_FUN_HB_GTINFO
 0001:00054A50  _HB_FUN_HB_GTSYS
 0001:00054390  _HB_FUN_HB_GTVERSION
 0001:00059D14  _HB_FUN_HB_GT_NUL
 0001:00059D18  _HB_FUN_HB_GT_NUL_DEFAULT
 0001:00005750  _HB_FUN_HB_GT_WVG
 0001:00005754  _HB_FUN_HB_GT_WVG_DEFAULT
 0001:00028F78  _HB_FUN_HB_HASHID
 0001:000490E4  _HB_FUN_HB_HFIND
 0001:00048FD8  _HB_FUN_HB_I18NGETBASELANGUAGE
 0001:00048FEC  _HB_FUN_HB_I18NGETBASELANGUAGENAME
 0001:00048FB0  _HB_FUN_HB_I18NGETLANGUAGE
 0001:00048FC4  _HB_FUN_HB_I18NGETLANGUAGENAME
 0001:00048EC0  _HB_FUN_HB_I18NGETPATH
 0001:000490C0  _HB_FUN_HB_I18NINITIALIZED
 0001:00048A68  _HB_FUN_HB_I18NLOADTABLE
 0001:00048CD0  _HB_FUN_HB_I18NSAVETABLE
 0001:00049000  _HB_FUN_HB_I18NSETBASELANGUAGE
 0001:00048ED4  _HB_FUN_HB_I18NSETLANGUAGE
 0001:00048E68  _HB_FUN_HB_I18NSETPATH
 0001:00048B88  _HB_FUN_HB_I18NSORTTABLE
 0001:0005AD44  _HB_FUN_HB_IDLEADD
 0001:0005AE68  _HB_FUN_HB_IDLEDEL
 0001:0005ACA4  _HB_FUN_HB_IDLERESET
 0001:0005ACAC  _HB_FUN_HB_IDLESLEEP
 0001:0005AEB0  _HB_FUN_HB_IDLESLEEPMSEC
 0001:0005AC94  _HB_FUN_HB_IDLESTATE
 0001:0005AEFC  _HB_FUN_HB_IDLEWAITNOCPU
 0001:00065D68  _HB_FUN_HB_ISARRAY
 0001:00065C8C  _HB_FUN_HB_ISBLOCK
 0001:00065B18  _HB_FUN_HB_ISBYREF
 0001:0004EB88  _HB_FUN_HB_ISCDROM
 0001:00065D10  _HB_FUN_HB_ISCHAR
 0001:00065C0C  _HB_FUN_HB_ISDATE
 0001:00065C38  _HB_FUN_HB_ISDATETIME
 0001:0004EBF0  _HB_FUN_HB_ISDISKETTE
 0001:0004EB20  _HB_FUN_HB_ISHARDDISK
 0001:00065DD8  _HB_FUN_HB_ISHASH
 0001:00065BE0  _HB_FUN_HB_ISLOGICAL
 0001:00065D40  _HB_FUN_HB_ISMEMO
 0001:00065B74  _HB_FUN_HB_ISNIL
 0001:00065E04  _HB_FUN_HB_ISNULL
 0001:00065BB4  _HB_FUN_HB_ISNUMERIC
 0001:00065DB0  _HB_FUN_HB_ISOBJECT
 0001:00065CB8  _HB_FUN_HB_ISPOINTER
 0001:0004EAB8  _HB_FUN_HB_ISRAMDISK
 0001:00060644  _HB_FUN_HB_ISREGEXSTRING
 0001:0004EA50  _HB_FUN_HB_ISREMOTEDISK
 0001:00055374  _HB_FUN_HB_ISSERVICE
 0001:00065CE4  _HB_FUN_HB_ISSTRING
 0001:00065C64  _HB_FUN_HB_ISTIMESTAMP
 0001:0005B240  _HB_FUN_HB_KEYPUT
 0001:0005BBD4  _HB_FUN_HB_LANGERRMSG
 0001:0005BBF4  _HB_FUN_HB_LANGMESSAGE
 0001:0005BBB0  _HB_FUN_HB_LANGNAME
 0001:0005BB78  _HB_FUN_HB_LANGSELECT
 0001:0007C4B4  _HB_FUN_HB_LANG_EN
 0001:0003F884  _HB_FUN_HB_MACROCOMPILE
 0001:0003958C  _HB_FUN_HB_MULTITHREAD
 0001:00047880  _HB_FUN_HB_MUTEXCREATE
 0001:00047884  _HB_FUN_HB_MUTEXLOCK
 0001:00047888  _HB_FUN_HB_MUTEXTIMEOUTLOCK
 0001:0004788C  _HB_FUN_HB_MUTEXTRYLOCK
 0001:00047890  _HB_FUN_HB_MUTEXUNLOCK
 0001:000394F0  _HB_FUN_HB_NOMOUSE
 0001:000394F4  _HB_FUN_HB_NOSTARTUPWINDOW
 0001:00060794  _HB_FUN_HB_NTOCOLOR
 0001:0001A1BC  _HB_FUN_HB_OBJMSGPTR
 0001:0005E3A4  _HB_FUN_HB_OPENPROCESS
 0001:0005E37C  _HB_FUN_HB_OSDRIVESEPARATOR
 0001:0005E328  _HB_FUN_HB_OSERROR
 0001:0005E390  _HB_FUN_HB_OSFILEMASK
 0001:0004CC00  _HB_FUN_HB_OSNEWLINE
 0001:0005E368  _HB_FUN_HB_OSPATHDELIMITERS
 0001:0005E354  _HB_FUN_HB_OSPATHLISTSEPARATOR
 0001:0005E340  _HB_FUN_HB_OSPATHSEPARATOR
 0001:00065F30  _HB_FUN_HB_PCODEVER
 0001:0006062C  _HB_FUN_HB_PCRE_VERSION
 0001:0005549C  _HB_FUN_HB_POPSIGNALHANDLER
 0001:0005E6F0  _HB_FUN_HB_PROCESSVALUE
 0001:000553D8  _HB_FUN_HB_PUSHSIGNALHANDLER
 0001:0003907C  _HB_FUN_HB_QSELF
 0001:0005A1A8  _HB_FUN_HB_RANDOM
 0001:0005A294  _HB_FUN_HB_RANDOMINT
 0001:0005A3EC  _HB_FUN_HB_RANDOMSEED
 0001:0007F808  _HB_FUN_HB_RDDGETTEMPALIAS
 0001:0007F834  _HB_FUN_HB_RDDINFO
 0001:0006046C  _HB_FUN_HB_REGEX
 0001:0006048C  _HB_FUN_HB_REGEXALL
 0001:0006047C  _HB_FUN_HB_REGEXATX
 0001:000604E8  _HB_FUN_HB_REGEXCOMP
 0001:0006049C  _HB_FUN_HB_REGEXMATCH
 0001:000604D8  _HB_FUN_HB_REGEXSPLIT
 0001:000394F8  _HB_FUN_HB_RESETWITH
 0001:00039228  _HB_FUN_HB_RESTOREBLOCK
 0001:00039118  _HB_FUN_HB_SAVEBLOCK
 0001:0005F07C  _HB_FUN_HB_SCROLL
 0001:00055788  _HB_FUN_HB_SERVICEGENERATEFAULT
 0001:00055798  _HB_FUN_HB_SERVICEGENERATEFPE
 0001:00055398  _HB_FUN_HB_SERVICELOOP
 0001:0004C068  _HB_FUN_HB_SETCODEPAGE
 0001:00054178  _HB_FUN_HB_SETDISPCP
 0001:00060A84  _HB_FUN_HB_SETKEYARRAY
 0001:00060CBC  _HB_FUN_HB_SETKEYCHECK
 0001:0005420C  _HB_FUN_HB_SETKEYCP
 0001:00060AFC  _HB_FUN_HB_SETKEYGET
 0001:00060B58  _HB_FUN_HB_SETKEYSAVE
 0001:0005B388  _HB_FUN_HB_SETLASTKEY
 0001:0003FCF0  _HB_FUN_HB_SETMACRO
 0001:00054254  _HB_FUN_HB_SETTERMCP
 0001:0005555C  _HB_FUN_HB_SIGNALDESC
 0001:00012360  _HB_FUN_HB_SIZEOFCSTRUCTURE
 0001:0005530C  _HB_FUN_HB_STARTSERVICE
 0001:0004C188  _HB_FUN_HB_STRTOUTF8
 0001:0001407C  _HB_FUN_HB_STRUCTURETOARRAY
 0001:000115BC  _HB_FUN_HB_THISARRAY
 0001:0005A858  _HB_FUN_HB_TOKENCOUNT
 0001:0005A8CC  _HB_FUN_HB_TOKENGET
 0001:0005A958  _HB_FUN_HB_TOKENPTR
 0001:000639B4  _HB_FUN_HB_TRACELEVEL
 0001:00063980  _HB_FUN_HB_TRACESTATE
 0001:000639E8  _HB_FUN_HB_TRACESTRING
 0001:0004C070  _HB_FUN_HB_TRANSLATE
 0001:0004E8FC  _HB_FUN_HB_TSTOSTR
 0001:0004C238  _HB_FUN_HB_UTF8CHR
 0001:0004C478  _HB_FUN_HB_UTF8LEFT
 0001:0004C970  _HB_FUN_HB_UTF8LEN
 0001:0004C5BC  _HB_FUN_HB_UTF8PEEK
 0001:0004C644  _HB_FUN_HB_UTF8POKE
 0001:0004C50C  _HB_FUN_HB_UTF8RIGHT
 0001:0004C9BC  _HB_FUN_HB_UTF8STRTRAN
 0001:0004C7F4  _HB_FUN_HB_UTF8STUFF
 0001:0004C368  _HB_FUN_HB_UTF8SUBSTR
 0001:0004C294  _HB_FUN_HB_UTF8TOSTR
 0001:0002D830  _HB_FUN_HB_VMEXECUTE
 0001:0003959C  _HB_FUN_HB_VMMODE
 0001:00039548  _HB_FUN_HB_WITHOBJECTCOUNTER
 0001:0002873C  _HB_FUN_HCLONE
 0001:00028794  _HB_FUN_HCOPY
 0001:00027A54  _HB_FUN_HDEL
 0001:000281C8  _HB_FUN_HDELAT
 0001:0007DBB8  _HB_FUN_HEADER
 0001:00028644  _HB_FUN_HEVAL
 0001:00059EE0  _HB_FUN_HEXTONUM
 0001:0005A09C  _HB_FUN_HEXTOSTR
 0001:000284AC  _HB_FUN_HFILL
 0001:00027918  _HB_FUN_HGET
 0001:00028E24  _HB_FUN_HGETAACOMPATIBILITY
 0001:00028A98  _HB_FUN_HGETAUTOADD
 0001:000289D8  _HB_FUN_HGETCASEMATCH
 0001:00027AF8  _HB_FUN_HGETKEYAT
 0001:00028350  _HB_FUN_HGETKEYS
 0001:00028038  _HB_FUN_HGETPAIRAT
 0001:00028C6C  _HB_FUN_HGETPARTITION
 0001:0002774C  _HB_FUN_HGETPOS
 0001:00028408  _HB_FUN_HGETVAAPOS
 0001:00027CA0  _HB_FUN_HGETVALUEAT
 0001:000283AC  _HB_FUN_HGETVALUES
 0001:00027890  _HB_FUN_HHASKEY
 0001:00066B68  _HB_FUN_HITTEST
 0001:00028890  _HB_FUN_HMERGE
 0001:0004E8A4  _HB_FUN_HMS2D
 0001:0004E520  _HB_FUN_HOUR
 0001:00028554  _HB_FUN_HSCAN
 0001:000279D4  _HB_FUN_HSET
 0001:00028D9C  _HB_FUN_HSETAACOMPATIBILITY
 0001:00028A2C  _HB_FUN_HSETAUTOADD
 0001:00028960  _HB_FUN_HSETCASEMATCH
 0001:00028AEC  _HB_FUN_HSETPARTITION
 0001:00027E48  _HB_FUN_HSETVALUEAT
 0001:00048DEC  _HB_FUN_I18N
 0001:0008D888  _HB_FUN_INDEXEXT
 0001:0008D89C  _HB_FUN_INDEXKEY
 0001:0007DBFC  _HB_FUN_INDEXORD
 0001:0005AF30  _HB_FUN_INKEY
 0001:0000F35C  _HB_FUN_INSERTPAINT
 0001:0005EA6C  _HB_FUN_INT
 0001:0005D598  _HB_FUN_ISAFFIRM
 0001:0005B6FC  _HB_FUN_ISALNUM
 0001:0005B4D4  _HB_FUN_ISALPHA
 0001:0005B92C  _HB_FUN_ISASCII
 0001:0005B764  _HB_FUN_ISCNTRL
 0001:00054A54  _HB_FUN_ISCOLOR
 0001:00067AF8  _HB_FUN_ISDEFCOLOR
 0001:0005B590  _HB_FUN_ISDIGIT
 0001:0005014C  _HB_FUN_ISDIRECTORY
 0001:0004EE1C  _HB_FUN_ISDISK
 0001:0005B7B0  _HB_FUN_ISGRAPH
 0001:0005B66C  _HB_FUN_ISLOWER
 0001:0007D858  _HB_FUN_ISMARKED
 0001:0005D5F8  _HB_FUN_ISNEGATIVE
 0001:00065AB8  _HB_FUN_ISNULL
 0001:0005B7FC  _HB_FUN_ISPRINT
 0001:0005B848  _HB_FUN_ISPUNCT
 0001:0005B894  _HB_FUN_ISSPACE
 0001:0005B5DC  _HB_FUN_ISUPPER
 0001:000478A4  _HB_FUN_ISVALIDTHREAD
 0001:0005B8E0  _HB_FUN_ISXDIGIT
 0001:00047898  _HB_FUN_JOINTHREAD
 0001:0004789C  _HB_FUN_KILLTHREAD
 0001:0005B350  _HB_FUN_LASTKEY
 0001:0007DC78  _HB_FUN_LASTREC
 0001:0005BC14  _HB_FUN_LEFT
 0001:0005BCE0  _HB_FUN_LEN
 0001:00066530  _HB_FUN_LISTBDEFCO
 0001:0007D8A8  _HB_FUN_LKSYS
 0001:0007DCA8  _HB_FUN_LOCK
 0001:0005C5C4  _HB_FUN_LOG
 0001:000616D8  _HB_FUN_LOWER
 0001:00065790  _HB_FUN_LTRIM
 0001:0007DD10  _HB_FUN_LUPDATE
 0001:0004ED54  _HB_FUN_MAKEDIR
 0001:0005BFB0  _HB_FUN_MATHERRMODE
 0001:0005C434  _HB_FUN_MATHERRORBLOCK
 0001:0005C944  _HB_FUN_MAX
 0001:0005C904  _HB_FUN_MAXCOL
 0001:0005C8C4  _HB_FUN_MAXROW
 0001:0005D360  _HB_FUN_MCOL
 0001:0005D450  _HB_FUN_MDBLCLK
 0001:00024B88  _HB_FUN_MEMORY
 0001:00066BDC  _HB_FUN_MEMVARBLOCK
 0001:00066580  _HB_FUN_MENUDEFCOL
 0001:00066CB4  _HB_FUN_MENUMSSGLINE
 0001:00042824  _HB_FUN_METHODNAME
 0001:0005D2A4  _HB_FUN_MHIDE
 0001:0005CC98  _HB_FUN_MIN
 0001:0004E58C  _HB_FUN_MINUTE
 0001:0005D400  _HB_FUN_MLEFTDOWN
 0001:0004E050  _HB_FUN_MONTH
 0001:0005D280  _HB_FUN_MPRESENT
 0001:0005D4CC  _HB_FUN_MRESTSTATE
 0001:0005D428  _HB_FUN_MRIGHTDOWN
 0001:0005D300  _HB_FUN_MROW
 0001:0005D484  _HB_FUN_MSAVESTATE
 0001:0005D504  _HB_FUN_MSETBOUNDS
 0001:0005D2BC  _HB_FUN_MSETCURSOR
 0001:0005D3C4  _HB_FUN_MSETPOS
 0001:0005D2B0  _HB_FUN_MSHOW
 0001:00066C28  _HB_FUN_MSSGLINE
 0001:0005D658  _HB_FUN_NATIONMSG
 0001:0007DD54  _HB_FUN_NETERR
 0001:0005D71C  _HB_FUN_NETNAME
 0001:0005B318  _HB_FUN_NEXTKEY
 0001:00054A78  _HB_FUN_NOSNOW
 0001:00059DB4  _HB_FUN_NUMTOHEX
 0001:0007E318  _HB_FUN_ORDBAGCLEAR
 0001:0007DD98  _HB_FUN_ORDBAGEXT
 0001:0007DE34  _HB_FUN_ORDBAGNAME
 0001:0007DF08  _HB_FUN_ORDCONDSET
 0001:00080444  _HB_FUN_ORDCOUNT
 0001:0007E1BC  _HB_FUN_ORDCREATE
 0001:0008038C  _HB_FUN_ORDCUSTOM
 0001:0008021C  _HB_FUN_ORDDESCEND
 0001:0007E3A4  _HB_FUN_ORDDESTROY
 0001:0007FEF0  _HB_FUN_ORDFINDREC
 0001:0007E444  _HB_FUN_ORDFOR
 0001:000802D4  _HB_FUN_ORDISUNIQUE
 0001:0007E538  _HB_FUN_ORDKEY
 0001:000800AC  _HB_FUN_ORDKEYADD
 0001:0007FCB8  _HB_FUN_ORDKEYCOUNT
 0001:00080164  _HB_FUN_ORDKEYDEL
 0001:0007FE04  _HB_FUN_ORDKEYGOTO
 0001:0007FD5C  _HB_FUN_ORDKEYNO
 0001:0007FE78  _HB_FUN_ORDKEYRELPOS
 0001:0008004C  _HB_FUN_ORDKEYVAL
 0001:0007E620  _HB_FUN_ORDLISTADD
 0001:0007E734  _HB_FUN_ORDLISTCLEAR
 0001:0007E75C  _HB_FUN_ORDLISTREBUILD
 0001:0007E784  _HB_FUN_ORDNAME
 0001:0007E864  _HB_FUN_ORDNUMBER
 0001:0007ECCC  _HB_FUN_ORDSCOPE
 0001:0007E95C  _HB_FUN_ORDSETFOCUS
 0001:0008D8B0  _HB_FUN_ORDSETRELATION
 0001:0007FF8C  _HB_FUN_ORDSKIPRAW
 0001:0007FFD8  _HB_FUN_ORDSKIPUNIQUE
 0001:00065EC4  _HB_FUN_OS
 0001:0004CEE4  _HB_FUN_OUTERR
 0001:0004CE98  _HB_FUN_OUTSTD
 0001:0005D75C  _HB_FUN_PAD
 0001:0005D764  _HB_FUN_PADC
 0001:0005D8A8  _HB_FUN_PADL
 0001:0005D9B8  _HB_FUN_PADR
 0001:0004D0B8  _HB_FUN_PCOL
 0001:000427F8  _HB_FUN_PCOUNT
 0001:00066644  _HB_FUN_PRGEXPTOVAL
 0001:00062860  _HB_FUN_PRINTEREXISTS
 0001:00062F14  _HB_FUN_PRINTERPORTTONAME
 0001:000630EC  _HB_FUN_PRINTFILERAW
 0001:000428CC  _HB_FUN_PROCFILE
 0001:00042894  _HB_FUN_PROCLINE
 0001:0004285C  _HB_FUN_PROCNAME
 0001:0004D0A0  _HB_FUN_PROW
 0001:0000F348  _HB_FUN_PURGEPAINT
 0001:0004CF7C  _HB_FUN_QOUT
 0001:0004CF30  _HB_FUN_QQOUT
 0001:00066508  _HB_FUN_RADGRDEFCO
 0001:0006651C  _HB_FUN_RADITDEFCO
 0001:00066ADC  _HB_FUN_RANGECHECK
 0001:00014164  _HB_FUN_RASCAN
 0001:0005E7B0  _HB_FUN_RAT
 0001:0007E9FC  _HB_FUN_RDDLIST
 0001:0007EA14  _HB_FUN_RDDNAME
 0001:0007EA58  _HB_FUN_RDDREGISTER
 0001:0007EC34  _HB_FUN_RDDSETDEFAULT
 0001:0008D8FC  _HB_FUN_RDDSYS
 0001:00066AC8  _HB_FUN_READFORMAT
 0001:00066A8C  _HB_FUN_READKILL
 0001:000669D8  _HB_FUN_READMODAL
 0001:00066A64  _HB_FUN_READUPDATED
 0001:0007EAC4  _HB_FUN_RECCOUNT
 0001:0007EACC  _HB_FUN_RECNO
 0001:0007EB00  _HB_FUN_RECSIZE
 0001:0005E8A8  _HB_FUN_REPLICATE
 0001:0005EEF8  _HB_FUN_RESTSCREEN
 0001:0005E9D8  _HB_FUN_RIGHT
 0001:0007EB44  _HB_FUN_RLOCK
 0001:0005EAF8  _HB_FUN_ROUND
 0001:00060E34  _HB_FUN_ROW
 0001:00065814  _HB_FUN_RTRIM
 0001:0005EE50  _HB_FUN_SAVESCREEN
 0001:0006803C  _HB_FUN_SCALAROBJECT
 0001:0005EF70  _HB_FUN_SCROLL
 0001:0005F03C  _HB_FUN_SCROLLFIXED
 0001:0005F338  _HB_FUN_SECONDS
 0001:0005F354  _HB_FUN_SECONDSCPU
 0001:00047810  _HB_FUN_SECONDSSLEEP
 0001:0004E5F8  _HB_FUN_SECS
 0001:0007EBAC  _HB_FUN_SELECT
 0001:00043420  _HB_FUN_SET
 0001:00060704  _HB_FUN_SETBLINK
 0001:000433E4  _HB_FUN_SETCANCEL
 0001:000664A4  _HB_FUN_SETCLRPAIR
 0001:000606C4  _HB_FUN_SETCOLOR
 0001:0006081C  _HB_FUN_SETCURSOR
 0001:00062DD8  _HB_FUN_SETDEFAULTPRINTER
 0001:000668CC  _HB_FUN_SETERRORMODE
 0001:0005B0D8  _HB_FUN_SETINKEYAFTERBLOCK
 0001:0005B06C  _HB_FUN_SETINKEYBEFOREBLOCK
 0001:000609C8  _HB_FUN_SETKEY
 0001:00054A9C  _HB_FUN_SETMODE
 0001:00065AF4  _HB_FUN_SETNULL
 0001:0000F30C  _HB_FUN_SETPAINT
 0001:00060DF8  _HB_FUN_SETPOS
 0001:00060E88  _HB_FUN_SETPOSBS
 0001:0004D2D8  _HB_FUN_SETPRC
 0001:000668EC  _HB_FUN_SETUNHANDLEDEXCEPTIONFILTER
 0001:00060EB4  _HB_FUN_SPACE
 0001:0005C6F8  _HB_FUN_SQRT
 0001:00047894  _HB_FUN_STARTTHREAD
 0001:0004DF40  _HB_FUN_STOD
 0001:000478A0  _HB_FUN_STOPTHREAD
 0001:0004E7CC  _HB_FUN_STOT
 0001:00061238  _HB_FUN_STR
 0001:000617B0  _HB_FUN_STRDEL
 0001:00066608  _HB_FUN_STRINGTOLITERAL
 0001:00059F38  _HB_FUN_STRTOHEX
 0001:00061FBC  _HB_FUN_STRTRAN
 0001:000622E0  _HB_FUN_STRZERO
 0001:00062424  _HB_FUN_STUFF
 0001:000625A4  _HB_FUN_SUBSTR
 0001:000B4868  _HB_FUN_SX_DECRYPT
 0001:000B4994  _HB_FUN_SX_DTOP
 0001:000B47D8  _HB_FUN_SX_ENCRYPT
 0001:000B49C0  _HB_FUN_SX_PTOD
 0001:00049310  _HB_FUN_SYSINIT
 0001:00067EB0  _HB_FUN_TASSOCIATIVEARRAY
 0001:00066B54  _HB_FUN_TBAPPLYKEY
 0001:000674BC  _HB_FUN_TBMOUSE
 0001:00066B40  _HB_FUN_TBREADER
 0001:000670AC  _HB_FUN_TBROWSE
 0001:00067534  _HB_FUN_TBROWSENEW
 0001:00001124  _HB_FUN_TBROWSEWVG
 0001:00047868  _HB_FUN_THREADINSPECT
 0001:0004786C  _HB_FUN_THREADINSPECTEND
 0001:00047870  _HB_FUN_THREADISINSPECTOR
 0001:000477BC  _HB_FUN_THREADSLEEP
 0001:000491D4  _HB_FUN_THROW
 0001:0004E138  _HB_FUN_TIME
 0001:0004E15C  _HB_FUN_TIMEOFDAY
 0001:00067FDC  _HB_FUN_TRACELOG
 0001:00063A1C  _HB_FUN_TRANSFORM
 0001:000658BC  _HB_FUN_TRIM
 0001:0005ED50  _HB_FUN_TSSECS
 0001:0005ED70  _HB_FUN_TSTRING
 0001:0004E3F8  _HB_FUN_TTOC
 0001:0004E354  _HB_FUN_TTOD
 0001:0004E3A0  _HB_FUN_TTOS
 0001:0006597C  _HB_FUN_TYPE
 0001:00068230  _HB_FUN_UNREF
 0001:00066A78  _HB_FUN_UPDATED
 0001:00061744  _HB_FUN_UPPER
 0001:0007EC10  _HB_FUN_USED
 0001:000659F4  _HB_FUN_VAL
 0001:00066658  _HB_FUN_VALTOARRAY
 0001:0006666C  _HB_FUN_VALTOBLOCK
 0001:00066680  _HB_FUN_VALTOCHARACTER
 0001:00066694  _HB_FUN_VALTODATE
 0001:000666A8  _HB_FUN_VALTOHASH
 0001:000666BC  _HB_FUN_VALTOLOGICAL
 0001:000666D0  _HB_FUN_VALTONUMBER
 0001:000666E4  _HB_FUN_VALTOOBJECT
 0001:0006661C  _HB_FUN_VALTOPRG
 0001:00066630  _HB_FUN_VALTOPRGEXP
 0001:000666F8  _HB_FUN_VALTOTYPE
 0001:00065A94  _HB_FUN_VALTYPE
 0001:00065F0C  _HB_FUN_VERSION
 0001:00060428  _HB_FUN_WILD2REGEX
 0001:00061ECC  _HB_FUN_WILDMATCH
 0001:0000F01C  _HB_FUN_WIN_AND
 0001:0000E17C  _HB_FUN_WIN_CHECKDLGBUTTON
 0001:0000E1FC  _HB_FUN_WIN_CHECKRADIOBUTTON
 0001:0000F148  _HB_FUN_WIN_CHOOSECOLOR
 0001:0000E7D0  _HB_FUN_WIN_CLIENTTOSCREEN
 0001:0000E51C  _HB_FUN_WIN_CREATEBRUSH
 0001:0000DFE8  _HB_FUN_WIN_DELETEOBJECT
 0001:0000E438  _HB_FUN_WIN_DRAWIMAGE
 0001:0000E5CC  _HB_FUN_WIN_DRAWTEXT
 0001:0000F270  _HB_FUN_WIN_FINDWINDOW
 0001:0000E3BC  _HB_FUN_WIN_GETCLIENTRECT
 0001:0000E494  _HB_FUN_WIN_GETDC
 0001:0000E0B0  _HB_FUN_WIN_GETDIALOGBASEUNITS
 0001:0000E244  _HB_FUN_WIN_GETDLGITEM
 0001:0000E108  _HB_FUN_WIN_GETDLGITEMTEXT
 0001:0000DFC8  _HB_FUN_WIN_GETSTOCKOBJECT
 0001:0000E670  _HB_FUN_WIN_GETWINDOWRECT
 0001:0000E05C  _HB_FUN_WIN_HIWORD
 0001:0000E2D8  _HB_FUN_WIN_INVALIDATERECT
 0001:0000E1D4  _HB_FUN_WIN_ISDLGBUTTONCHECKED
 0001:0000E76C  _HB_FUN_WIN_ISWINDOW
 0001:0000E2EC  _HB_FUN_WIN_LOADICON
 0001:0000E348  _HB_FUN_WIN_LOADIMAGE
 0001:0000E03C  _HB_FUN_WIN_LOWORD
 0001:0000E26C  _HB_FUN_WIN_MESSAGEBOX
 0001:0000E6D8  _HB_FUN_WIN_MOVEWINDOW
 0001:0000E080  _HB_FUN_WIN_MULDIV
 0001:0000F06C  _HB_FUN_WIN_NOT
 0001:0000F044  _HB_FUN_WIN_OR
 0001:0000E4E8  _HB_FUN_WIN_RECTANGLE
 0001:0000E4B4  _HB_FUN_WIN_RELEASEDC
 0001:0000E84C  _HB_FUN_WIN_SCREENTOCLIENT
 0001:0000E014  _HB_FUN_WIN_SELECTOBJECT
 0001:0000DE20  _HB_FUN_WIN_SENDDLGITEMMESSAGE
 0001:0000DD40  _HB_FUN_WIN_SENDMESSAGE
 0001:0000DF78  _HB_FUN_WIN_SETBKCOLOR
 0001:0000DFA0  _HB_FUN_WIN_SETBKMODE
 0001:0000E0E0  _HB_FUN_WIN_SETDLGITEMTEXT
 0001:0000DF40  _HB_FUN_WIN_SETFOCUS
 0001:0000E0C8  _HB_FUN_WIN_SETMENU
 0001:0000E714  _HB_FUN_WIN_SETPARENT
 0001:0000DF50  _HB_FUN_WIN_SETTEXTCOLOR
 0001:0000DF00  _HB_FUN_WIN_SETTIMER
 0001:0000E73C  _HB_FUN_WIN_SETWINDOWLONG
 0001:0000F088  _HB_FUN_WIN_TRACKPOPUPMENU
 0001:00066258  _HB_FUN_WORD
 0001:00000D64  _HB_FUN_WVTBANNER
 0001:000004C4  _HB_FUN_WVTBROWSE
 0001:000010C4  _HB_FUN_WVTCONSOLE
 0001:00000314  _HB_FUN_WVTDIALOG
 0001:00000B3C  _HB_FUN_WVTGETS
 0001:000009BC  _HB_FUN_WVTIMAGE
 0001:00000734  _HB_FUN_WVTLABEL
 0001:00000FA4  _HB_FUN_WVTMENU
 0001:00000434  _HB_FUN_WVTOBJECT
 0001:0000F2E4  _HB_FUN_WVTPAINTOBJECTS
 0001:000006EC  _HB_FUN_WVTPANEL
 0001:00000F14  _HB_FUN_WVTPROGRESSBAR
 0001:00000AAC  _HB_FUN_WVTPUSHBUTTON
 0001:00000C74  _HB_FUN_WVTSCROLLBAR
 0001:0000F2F8  _HB_FUN_WVTSETPAINT
 0001:00000A1C  _HB_FUN_WVTSTATIC
 0001:00000614  _HB_FUN_WVTSTATUSBAR
 0001:00000E54  _HB_FUN_WVTTEXTBOX
 0001:00000824  _HB_FUN_WVTTOOLBAR
 0001:000008E4  _HB_FUN_WVTTOOLBUTTON
 0001:0000F384  _HB_FUN_WVT_ADDDLGITEM
 0001:0000CF4C  _HB_FUN_WVT_APPENDMENU
 0001:0000DC48  _HB_FUN_WVT_CBADDSTRING
 0001:0000DC7C  _HB_FUN_WVT_CBSETCURSEL
 0001:0000F4D8  _HB_FUN_WVT_CENTERWINDOW
 0001:0000C440  _HB_FUN_WVT_CHOOSECOLOR
 0001:0000C0D4  _HB_FUN_WVT_CHOOSEFONT
 0001:0000D27C  _HB_FUN_WVT_CLIENTTOSCREEN
 0001:00005E50  _HB_FUN_WVT_CORE
 0001:0000F398  _HB_FUN_WVT_CREATEDIALOG
 0001:0000D3D8  _HB_FUN_WVT_CREATEDIALOGDYNAMIC
 0001:0000D62C  _HB_FUN_WVT_CREATEDIALOGMODAL
 0001:0000B698  _HB_FUN_WVT_CREATEFONT
 0001:0000CF1C  _HB_FUN_WVT_CREATEMENU
 0001:0000CF34  _HB_FUN_WVT_CREATEPOPUPMENU
 0001:0000D008  _HB_FUN_WVT_DELETEMENU
 0001:0000D048  _HB_FUN_WVT_DESTROYMENU
 0001:0000F3AC  _HB_FUN_WVT_DIALOGBOX
 0001:0000DCAC  _HB_FUN_WVT_DLGSETICON
 0001:00007470  _HB_FUN_WVT_DRAWBOXGET
 0001:000076F4  _HB_FUN_WVT_DRAWBOXGROUP
 0001:000077C0  _HB_FUN_WVT_DRAWBOXGROUPRAISED
 0001:00007544  _HB_FUN_WVT_DRAWBOXRAISED
 0001:0000761C  _HB_FUN_WVT_DRAWBOXRECESSED
 0001:00008FE8  _HB_FUN_WVT_DRAWBUTTON
 0001:00008C5C  _HB_FUN_WVT_DRAWCOLORRECT
 0001:00008748  _HB_FUN_WVT_DRAWELLIPSE
 0001:00008B38  _HB_FUN_WVT_DRAWFOCUSRECT
 0001:00008DA8  _HB_FUN_WVT_DRAWGRIDHORZ
 0001:00008EBC  _HB_FUN_WVT_DRAWGRIDVERT
 0001:0000788C  _HB_FUN_WVT_DRAWIMAGE
 0001:000079E0  _HB_FUN_WVT_DRAWLABEL
 0001:00009938  _HB_FUN_WVT_DRAWLABELEX
 0001:0000A274  _HB_FUN_WVT_DRAWLABELOBJ
 0001:00007FC8  _HB_FUN_WVT_DRAWLINE
 0001:00009B10  _HB_FUN_WVT_DRAWLINEEX
 0001:0000D144  _HB_FUN_WVT_DRAWMENUBAR
 0001:00007E1C  _HB_FUN_WVT_DRAWOUTLINE
 0001:0000A17C  _HB_FUN_WVT_DRAWOUTLINEEX
 0001:00009820  _HB_FUN_WVT_DRAWPICTURE
 0001:0000B364  _HB_FUN_WVT_DRAWPROGRESSBAR
 0001:0000886C  _HB_FUN_WVT_DRAWRECTANGLE
 0001:00008990  _HB_FUN_WVT_DRAWROUNDRECT
 0001:0000A678  _HB_FUN_WVT_DRAWSCROLLBUTTON
 0001:0000AC98  _HB_FUN_WVT_DRAWSCROLLTHUMBHORZ
 0001:0000AA54  _HB_FUN_WVT_DRAWSCROLLTHUMBVERT
 0001:0000AEE8  _HB_FUN_WVT_DRAWSHADEDRECT
 0001:00009534  _HB_FUN_WVT_DRAWSTATUSBAR
 0001:0000B0F0  _HB_FUN_WVT_DRAWTEXTBOX
 0001:0000A514  _HB_FUN_WVT_DRAWTOOLBUTTONSTATE
 0001:0000D074  _HB_FUN_WVT_ENABLEMENUITEM
 0001:0000D158  _HB_FUN_WVT_ENABLESHORTCUTS
 0001:0000F528  _HB_FUN_WVT_GETCLIPBOARD
 0001:0000D2FC  _HB_FUN_WVT_GETCURSORPOS
 0001:0000E798  _HB_FUN_WVT_GETFONTHANDLE
 0001:0000CD28  _HB_FUN_WVT_GETFONTINFO
 0001:0000D0A4  _HB_FUN_WVT_GETLASTMENUEVENT
 0001:0000D3B0  _HB_FUN_WVT_GETMENU
 0001:0000F3C0  _HB_FUN_WVT_GETOPENFILENAME
 0001:0000CA90  _HB_FUN_WVT_GETPAINTRECT
 0001:0000F44C  _HB_FUN_WVT_GETPALETTE
 0001:0000F474  _HB_FUN_WVT_GETRGBCOLOR
 0001:0000F3D4  _HB_FUN_WVT_GETSAVEFILENAME
 0001:0000F4B0  _HB_FUN_WVT_GETSCREENHEIGHT
 0001:0000F49C  _HB_FUN_WVT_GETSCREENWIDTH
 0001:0000F3FC  _HB_FUN_WVT_GETTITLE
 0001:0000C944  _HB_FUN_WVT_GETTOOLTIPBKCOLOR
 0001:0000C974  _HB_FUN_WVT_GETTOOLTIPTEXTCOLOR
 0001:0000C914  _HB_FUN_WVT_GETTOOLTIPWIDTH
 0001:0000F4C4  _HB_FUN_WVT_GETWINDOWHANDLE
 0001:0000CCBC  _HB_FUN_WVT_GETXYFROMROWCOL
 0001:0000F5F0  _HB_FUN_WVT_HIDE
 0001:0000D1A8  _HB_FUN_WVT_INVALIDATERECT
 0001:0000D254  _HB_FUN_WVT_ISLBUTTONPRESSED
 0001:0000F514  _HB_FUN_WVT_KEYBOARD
 0001:0000F58C  _HB_FUN_WVT_KILLTIMER
 0001:0000DB7C  _HB_FUN_WVT_LBADDSTRING
 0001:0000DBE8  _HB_FUN_WVT_LBDELETESTRING
 0001:0000DBB0  _HB_FUN_WVT_LBGETCOUNT
 0001:0000DC18  _HB_FUN_WVT_LBSETCURSEL
 0001:0000BA0C  _HB_FUN_WVT_LOADFONT
 0001:0000BCA0  _HB_FUN_WVT_LOADPEN
 0001:0000B928  _HB_FUN_WVT_LOADPICTURE
 0001:0000B994  _HB_FUN_WVT_LOADPICTUREFROMRESOURCE
 0001:0000F370  _HB_FUN_WVT_MAKEDLGTEMPLATE
 0001:0000F5DC  _HB_FUN_WVT_MAXIMIZE
 0001:0000C548  _HB_FUN_WVT_MESSAGEBOX
 0001:0000F5C8  _HB_FUN_WVT_MINIMIZE
 0001:0000F550  _HB_FUN_WVT_PASTEFROMCLIPBOARD
 0001:0000F500  _HB_FUN_WVT_PROCESSMESSAGES
 0001:0000F564  _HB_FUN_WVT_RESETWINDOW
 0001:0000BF00  _HB_FUN_WVT_RESTSCREEN
 0001:0000BD98  _HB_FUN_WVT_SAVESCREEN
 0001:0000F488  _HB_FUN_WVT_SETALTF4CLOSE
 0001:0000F5B4  _HB_FUN_WVT_SETASNORMAL
 0001:00007354  _HB_FUN_WVT_SETBRUSH
 0001:0000F53C  _HB_FUN_WVT_SETCLIPBOARD
 0001:0000F438  _HB_FUN_WVT_SETCODEPAGE
 0001:0000F424  _HB_FUN_WVT_SETFONT
 0001:0000C9A4  _HB_FUN_WVT_SETGUI
 0001:0000F410  _HB_FUN_WVT_SETICON
 0001:0000D0C4  _HB_FUN_WVT_SETLASTMENUEVENT
 0001:0000CDC4  _HB_FUN_WVT_SETMENU
 0001:0000D104  _HB_FUN_WVT_SETMENUKEYEVENT
 0001:0000CC70  _HB_FUN_WVT_SETMOUSEMOVE
 0001:0000C9F4  _HB_FUN_WVT_SETMOUSEPOS
 0001:0000F5A0  _HB_FUN_WVT_SETONTOP
 0001:0000F460  _HB_FUN_WVT_SETPALETTE
 0001:00007260  _HB_FUN_WVT_SETPEN
 0001:0000CAF8  _HB_FUN_WVT_SETPOINTER
 0001:0000CEE8  _HB_FUN_WVT_SETPOPUPMENU
 0001:0000F578  _HB_FUN_WVT_SETTIMER
 0001:0000F3E8  _HB_FUN_WVT_SETTITLE
 0001:0000C618  _HB_FUN_WVT_SETTOOLTIP
 0001:0000C5B8  _HB_FUN_WVT_SETTOOLTIPACTIVE
 0001:0000C854  _HB_FUN_WVT_SETTOOLTIPBKCOLOR
 0001:0000C78C  _HB_FUN_WVT_SETTOOLTIPMARGIN
 0001:0000C720  _HB_FUN_WVT_SETTOOLTIPTEXT
 0001:0000C8B4  _HB_FUN_WVT_SETTOOLTIPTEXTCOLOR
 0001:0000C7F4  _HB_FUN_WVT_SETTOOLTIPWIDTH
 0001:0000F618  _HB_FUN_WVT_SETWINDOWPOS
 0001:0000F604  _HB_FUN_WVT_SHOW
 0001:0000F62C  _HB_FUN_WVT_SHOWWINDOW
 0001:0000D350  _HB_FUN_WVT_TRACKPOPUPMENU
 0001:0000F640  _HB_FUN_WVT_UPDATE
 0001:0000C0D0  _HB_FUN_WVT_UTILS
 0001:0000F4EC  _HB_FUN_WVT_WINDOWCENTRE
 0001:0000EC34  _HB_FUN_WVT__GETOPENFILENAME
 0001:0000EE58  _HB_FUN_WVT__GETSAVEFILENAME
 0001:0000D7C8  _HB_FUN_WVT__MAKEDLGTEMPLATE
 0001:0004DFDC  _HB_FUN_YEAR
 0001:0006808C  _HB_FUN__ARRAY
 0001:000681A4  _HB_FUN__BLOCK
 0001:000681B8  _HB_FUN__CHARACTER
 0001:000681CC  _HB_FUN__DATE
 0001:0008D068  _HB_FUN__DBF
 0001:00068140  _HB_FUN__HASH
 0001:000681E0  _HB_FUN__LOGICAL
 0001:0005D6D4  _HB_FUN__NATMSGVER
 0001:0005D6C0  _HB_FUN__NATSORTVER
 0001:000681F4  _HB_FUN__NIL
 0001:00068208  _HB_FUN__NUMERIC
 0001:0006821C  _HB_FUN__POINTER
 0001:000492D4  _HB_FUN___BREAKBLOCK
 0001:000194D0  _HB_FUN___CLASSH
 0001:0001904C  _HB_FUN___CLASSNAME
 0001:00019098  _HB_FUN___CLASSSEL
 0001:00018038  _HB_FUN___CLSACTIVE
 0001:0001A5FC  _HB_FUN___CLSADDFRIEND
 0001:00017058  _HB_FUN___CLSADDMSG
 0001:0001A708  _HB_FUN___CLSASSOCTYPE
 0001:0001A978  _HB_FUN___CLSCNTCLASSES
 0001:0001810C  _HB_FUN___CLSDELMSG
 0001:0001A620  _HB_FUN___CLSFRIENDLY
 0001:0001A298  _HB_FUN___CLSGETHANDLEFROMNAME
 0001:0001A054  _HB_FUN___CLSGETIVARNAMESANDVALUES
 0001:00019EDC  _HB_FUN___CLSGETPROPERTIES
 0001:00019F70  _HB_FUN___CLSGETPROPERTIESANDVALUES
 0001:00018928  _HB_FUN___CLSHASMSG
 0001:00018234  _HB_FUN___CLSINST
 0001:0001A990  _HB_FUN___CLSINSTNAME
 0001:00018DD4  _HB_FUN___CLSINSTSUPER
 0001:00017FE8  _HB_FUN___CLSISACTIVE
 0001:000185C8  _HB_FUN___CLSMODMSG
 0001:00018870  _HB_FUN___CLSMSGASSIGNED
 0001:00017E5C  _HB_FUN___CLSNEW
 0001:00019324  _HB_FUN___CLSPARENT
 0001:000180A4  _HB_FUN___CLSSETMODULE
 0001:00018EF0  _HB_FUN___CLS_CNTCLSDATA
 0001:00018F74  _HB_FUN___CLS_CNTDATA
 0001:00018F3C  _HB_FUN___CLS_CNTSHRDATA
 0001:00018FB0  _HB_FUN___CLS_DECDATA
 0001:00018FEC  _HB_FUN___CLS_INCDATA
 0001:0007F590  _HB_FUN___DBAPP
 0001:0007F02C  _HB_FUN___DBARRANGE
 0001:0007D1E4  _HB_FUN___DBCONTINUE
 0001:0007F69C  _HB_FUN___DBCOPY
 0001:0007D0C8  _HB_FUN___DBLOCATE
 0001:0007CDE4  _HB_FUN___DBOPENSDF
 0001:0007D210  _HB_FUN___DBPACK
 0001:0007D584  _HB_FUN___DBSETFOUND
 0001:0007D198  _HB_FUN___DBSETLOCATE
 0001:0007F3C4  _HB_FUN___DBTRANS
 0001:0007D830  _HB_FUN___DBZAP
 0001:0001B480  _HB_FUN___DYNSCOUNT
 0001:0001B4CC  _HB_FUN___DYNSGETINDEX
 0001:0001B494  _HB_FUN___DYNSGETNAME
 0001:0001B554  _HB_FUN___DYNSGETPRF
 0001:0001B4FC  _HB_FUN___DYNSISFUN
 0001:0004D054  _HB_FUN___EJECT
 0001:0001C37C  _HB_FUN___ERRINHANDLER
 0001:000492E8  _HB_FUN___ERRORBLOCK
 0001:0001D0A4  _HB_FUN___ERRRT_BASE
 0001:0001D0EC  _HB_FUN___ERRRT_SBASE
 0001:000194F8  _HB_FUN___EVAL
 0001:00067B80  _HB_FUN___GET
 0001:00067B94  _HB_FUN___GETA
 0001:00066964  _HB_FUN___GETLISTACTIVE
 0001:00066978  _HB_FUN___GETLISTLAST
 0001:00066950  _HB_FUN___GETLISTSETACTIVE
 0001:00019120  _HB_FUN___GETMEMBERS
 0001:000192F8  _HB_FUN___GETMESSAGE
 0001:00019D0C  _HB_FUN___GETMSGPRF
 0001:00067AE4  _HB_FUN___GUICOLOR
 0001:0005B144  _HB_FUN___KEYBOARD
 0001:00066AA0  _HB_FUN___KILLREAD
 0001:000492FC  _HB_FUN___MINIMALERRORHANDLER
 0001:000418D8  _HB_FUN___MVCLEAR
 0001:000418E0  _HB_FUN___MVDBGINFO
 0001:000419B4  _HB_FUN___MVEXIST
 0001:000419FC  _HB_FUN___MVGET
 0001:000416C0  _HB_FUN___MVPRIVATE
 0001:00041634  _HB_FUN___MVPUBLIC
 0001:00041ACC  _HB_FUN___MVPUT
 0001:000417CC  _HB_FUN___MVRELEASE
 0001:000420A8  _HB_FUN___MVRESTORE
 0001:00041E38  _HB_FUN___MVSAVE
 0001:00041844  _HB_FUN___MVSCOPE
 0001:000427A8  _HB_FUN___MVSYMBOLINFO
 0001:00041750  _HB_FUN___MVXRELEASE
 0001:00066430  _HB_FUN___NONOALERT
 0001:00066E2C  _HB_FUN___OBJADDACCESSASSIGN
 0001:00066E18  _HB_FUN___OBJADDDATA
 0001:00066E04  _HB_FUN___OBJADDINLINE
 0001:00066DF0  _HB_FUN___OBJADDMETHOD
 0001:00018B24  _HB_FUN___OBJCLONE
 0001:00066EA4  _HB_FUN___OBJDELDATA
 0001:00066E7C  _HB_FUN___OBJDELINLINE
 0001:00066E68  _HB_FUN___OBJDELMETHOD
 0001:00066EB8  _HB_FUN___OBJDERIVEDFROM
 0001:00018904  _HB_FUN___OBJGETCLSNAME
 0001:00066DC8  _HB_FUN___OBJGETDERIVEDDIFF
 0001:00066D78  _HB_FUN___OBJGETMETHODLIST
 0001:00066D64  _HB_FUN___OBJGETMSGFULLLIST
 0001:00066D50  _HB_FUN___OBJGETMSGLIST
 0001:00066DB4  _HB_FUN___OBJGETVALUEDIFF
 0001:00066DA0  _HB_FUN___OBJGETVALUEFULLLIST
 0001:00066D8C  _HB_FUN___OBJGETVALUELIST
 0001:00066D28  _HB_FUN___OBJHASDATA
 0001:00066D3C  _HB_FUN___OBJHASMETHOD
 0001:000189D0  _HB_FUN___OBJHASMSG
 0001:00066E54  _HB_FUN___OBJMODINLINE
 0001:00066E40  _HB_FUN___OBJMODMETHOD
 0001:00018C84  _HB_FUN___OBJSENDMSG
 0001:00018D2C  _HB_FUN___OBJSENDMSGCASE
 0001:00066E90  _HB_FUN___OBJSETMETHOD
 0001:00066DDC  _HB_FUN___OBJSETVALUELIST
 0001:000390D8  _HB_FUN___OPCOUNT
 0001:000390EC  _HB_FUN___OPGETPRF
 0001:0003C254  _HB_FUN___QUIT
 0001:0007F82C  _HB_FUN___RDDGETTEMPALIAS
 0001:00082EB4  _HB_FUN___RDDPREALLOCATE
 0001:0001935C  _HB_FUN___SENDER
 0001:00043398  _HB_FUN___SETCENTURY
 0001:0001A4C8  _HB_FUN___SETCLASSAUTOINIT
 0001:0001A470  _HB_FUN___SETCLASSSCOPE
 0001:00066AB4  _HB_FUN___SETFORMAT
 0001:000492C0  _HB_FUN___SETHELPK
 0001:00038F3C  _HB_FUN___SETPROFILER
 0001:0005AAA0  _HB_FUN___STRTKPTR
 0001:0005AA98  _HB_FUN___STRTOKEN
 0001:0005AAA8  _HB_FUN___STRTOKENCOUNT
 0001:0003955C  _HB_FUN___TEXTINTO
 0001:00038F40  _HB_FUN___TRACEPRGCALLS
 0001:0003C21C  _HB_FUN___VMVARGLIST
 0001:0003C234  _HB_FUN___VMVARSGET
 0001:0003C22C  _HB_FUN___VMVARSLEN
 0001:0003C224  _HB_FUN___VMVARSLIST
 0001:0003C23C  _HB_FUN___VMVARSSET
 0001:000662A4  _HB_FUN___XHELP
 0001:00066390  _HB_FUN___XRESTSCREEN
 0001:0006631C  _HB_FUN___XSAVESCREEN
 0001:000B4534  _HB_PCREPOS_LIBRARY
 0002:0003F8F0  _IID_IPicture
 0001:000BF218  _InitTermAndUnexPtrs()
 0001:00060138  _Mask2RegEx
 0001:00072CC0  _SimpLex_CheckToken
 0001:00073068  _SimpLex_CheckWords
 0001:00071E38  _SimpLex_GetNextToken
 0001:0001205C  _SizeOfCStructure
 0001:000137F8  _StructureToArray
 0001:000C0BF4  _ThrowExceptionLDTC(void *, void *, void *, void *, unsigned int, unsigned int, unsigned int, unsigned char *, void *)
 0001:000638D8  _TraceLog
 0001:0006000C  _Wild2RegEx
 0002:0003E95C  __AmPm
 0003:0000E478  __C0argc
 0003:0000E47C  __C0argv
 0003:0000E480  __C0environ
 0002:0003E964  __Days
 0003:0000E8C8  __DestructorCountPtr
 0001:000BCCC4  __ErrorExit
 0001:000BCB98  __ErrorMessage
 0001:000BCAC8  __ErrorMessageHelper
 0003:0000E498  __ExcRegPtr
 0001:000BF310  __ExceptInit
 0002:0003EEB4  __ExceptVarsSize
 0001:000BE96B  __ExceptionHandler
 0001:000BE95D  __ExitExceptBlock
 0003:00007DE9  __FastMM_AllocSize2SmallBlockTypeIndX4
 0002:0003C8AC  __FastMM_IsMultiThread
 0003:00007F30  __FastMM_LastSequentiallyFedMediumBlock
 0003:00007F3C  __FastMM_MediumBlockBinBitmaps
 0003:00007F38  __FastMM_MediumBlockBinGroupBitmap
 0003:00007FBC  __FastMM_MediumBlockBins
 0002:0003CFD8  __FastMM_MediumBlocksLocked
 0003:00007F34  __FastMM_MediumSequentialFeedBytesLeft
 0002:0003C8E0  __FastMM_MemoryManager
 0002:0003C8AE  __FastMM_NeverSleepOnMMThreadContention
 0002:0003C8AD  __FastMM_ReportMemoryLeaksOnShutdown
 0002:0003C8F8  __FastMM_SmallBlockTypes
 0001:000001CB  __GetExceptDLLinfo
 0001:000BF360  __GetExceptDLLinfoInternal
 0001:000C0C2C  __Global_unwind
 0003:0000E8D0  __HandlerPtr
 0001:000BF518  __InitDefaultHander
 0001:000BE924  __InitExceptBlockLDTC
 0002:0003E92C  __LMonth
 0002:0003E8E0  __LWeekday
 0002:0003EA88  __PREFER_END_STANDARD_TIME
 0002:0003EA89  __PREFER_START_DAYLIGHT_TIME
 0002:000000B0  __PackageInfoTable
 0002:0003E8FC  __SMonth
 0002:0003E8C4  __SWeekday
 0001:000BF52C  __SetExceptionHandler
 0001:000BF4CC  __SetUserHandler
 0002:0000009F  __TLS_index
 0002:000000A3  __TLS_index4
 0001:000BF541  __UnsetExceptionHandler
 0001:000BF56D  __UnwindException
 0003:0000E8D4  __UserHandlerPtr
 0002:0003E970  __YDays
 0002:000000AC  ___CPPdebugHook
 0002:000000AC  ___CPPdebugHook_segment
 0002:0003EE18  ___CPPexceptionList
 0001:000B4D4C  ___CRTL_MEM_CheckBorMem
 0001:000B4C4C  ___CRTL_MEM_GetBorMemPtrs
 0001:000B4D70  ___CRTL_MEM_Revector
 0001:000B4E4C  ___CRTL_MEM_UseBorMM
 0001:000BE318  ___CRTL_TLS_Alloc
 0001:000BE35C  ___CRTL_TLS_ExitThread
 0001:000BE320  ___CRTL_TLS_Free
 0001:000BE364  ___CRTL_TLS_GetInfo
 0001:000BE330  ___CRTL_TLS_GetValue
 0001:000BE354  ___CRTL_TLS_InitThread
 0001:000BE340  ___CRTL_TLS_SetValue
 0001:000B6810  ___CRTL_VCLLIB_Linkage
 0001:000B680C  ___CRTL_VCL_Init
 0001:000B82C0  ___DOSerror
 0001:000BF388  ___DefHandler
 0001:000BCCB4  ___ErrorMessage
 0002:0003EE34  ___ExceptStaticXbuff
 0001:000B8274  ___IOerror
 0001:000C0BEC  ___JumpToCatch__
 0001:000B82E0  ___NTerror
 0001:000002B2  ___System__GetTls
 0001:000C0D60  ____ExceptionHandler
 0001:000BE8A4  ____set_tzset_hook
 0001:000B6FF8  ___access
 0001:000BD38C  ___atexit
 0001:000BD3CC  ___call_atexit_procs
 0001:000BF26C  ___call_terminate
 0001:000BF2D8  ___call_unexpected
 0001:000BF596  ___cleanupTObject
 0001:000B7038  ___close
 0001:00017244  ___cls_CntMethods
 0001:000BCF20  ___dbkFCallArgs
 0002:0003EF10  ___debuggerDisableTerminateCallback
 0001:000BF57A  ___doGlobalUnwind
 0001:000B709C  ___dup
 0001:000B70B0  ___dup2
 0001:000B71A0  ___eof
 0001:000BCB34  ___errno
 0002:0003EE1C  ___exceptFlags
 0002:0003EE30  ___exceptMemAllocVars
 0002:0003EE2C  ___exceptStaticBuffP
 0001:000BD424  ___exit
 0001:000B7D28  ___fopen_helper
 0001:000B7D90  ___fputn
 0001:000B7CFC  ___getfp
 0002:0003E4D4  ___ieee_64_n_inf
 0002:0003E4E4  ___ieee_64_n_nanq
 0002:0003E4F4  ___ieee_64_n_nans
 0002:0003E504  ___ieee_64_n_zero
 0002:0003E4CC  ___ieee_64_p_inf
 0002:0003E4DC  ___ieee_64_p_nanq
 0002:0003E4EC  ___ieee_64_p_nans
 0002:0003E4FC  ___ieee_64_p_zero
 0001:000BA9A8  ___int64toa
 0002:00000091  ___isDLL
 0001:000BE4F4  ___isDST_hook
 0002:00000058  ___isGUI
 0002:00000090  ___isVCLPackage
 0001:000B7228  ___isatty
 0001:000B7258  ___isatty_osfhandle
 0001:000B96C0  ___isctype
 0001:000B970C  ___isctypeEx
 0001:000B9760  ___iswctype
 0001:000B97D0  ___iswctypeEx
 0001:000BAA5C  ___ldtrunc
 0002:0003E190  ___locale
 0001:000BABE8  ___longtoa
 0001:000B7270  ___lseek
 0001:000BA3B4  ___matherr
 0001:000B85B8  ___mkname
 0001:000BA6C6  ___nextreal
 0001:000B72E8  ___open
 0001:000B7C4C  ___openfp
 0001:000B7924  ___org__chdrive
 0001:000B67A4  ___org__expand
 0001:000B8398  ___org__fgetc
 0001:000BACF0  ___org__matherrl
 0001:000B67C8  ___org__msize
 0001:000B7824  ___org__read
 0001:000B77C8  ___org__rtl_read
 0001:000B7840  ___org__rtl_write
 0001:000B68BC  ___org__strerror
 0001:000B7888  ___org__write
 0001:000B93F8  ___org_access
 0001:000BA650  ___org_atoi
 0001:000BA5E8  ___org_atol
 0001:000BA660  ___org_ceil
 0001:000B9400  ___org_close
 0001:000B4A18  ___org_delete
 0001:000B49F0  ___org_deletea
 0001:000BA708  ___org_div
 0001:000B9408  ___org_dup
 0001:000BA720  ___org_exp
 0001:000B79C0  ___org_fclose
 0001:000B7A50  ___org_fflush
 0001:000B83B0  ___org_fgetc
 0001:000B7D54  ___org_fopen
 0001:000B7D6C  ___org_fprintf
 0001:000B849C  ___org_fputc
 0001:000B4D60  ___org_free
 0001:000B7ED4  ___org_fseek
 0001:000B7F38  ___org_ftell
 0001:000BD528  ___org_getenv
 0001:000BAC78  ___org_itoa
 0001:000BA708  ___org_ldiv
 0001:000BAB78  ___org_log
 0001:000B4D50  ___org_malloc
 0001:000B99C8  ___org_mblen
 0001:000B9D24  ___org_mbstowcs
 0001:000B9A44  ___org_mbtowc
 0001:000B6A88  ___org_memchr
 0001:000B6AE0  ___org_memcmp
 0001:000B6B4C  ___org_memcpy
 0001:000B6C65  ___org_memmove
 0001:000B6D17  ___org_memset
 0001:000BAD38  ___org_modf
 0001:000BAD68  ___org_modfl
 0001:000BAD98  ___org_pow
 0001:000B864C  ___org_printf
 0001:000BCEE8  ___org_qsort
 0001:000BE014  ___org_raise
 0001:000B9410  ___org_remove
 0001:000B8670  ___org_setmode
 0001:000B86E0  ___org_setvbuf
 0001:000B8758  ___org_sprintf
 0001:000BC090  ___org_sqrt
 0001:000B6D30  ___org_strcat
 0001:000B6D90  ___org_strchr
 0001:000B6814  ___org_strdup
 0001:000B68D8  ___org_strerror
 0001:000B6DE0  ___org_strlen
 0001:000B6E3C  ___org_strncat
 0001:000B6EB8  ___org_strncmp
 0001:000B68EC  ___org_strncpy
 0001:000B693C  ___org_strpbrk
 0001:000B696C  ___org_strrchr
 0001:000B6998  ___org_strstr
 0001:000BE8D4  ___org_time
 0001:000BACA8  ___org_ultoa
 0001:000B88C8  ___org_vfprintf
 0001:000B8780  ___org_vsprintf
 0001:000B9E98  ___org_wcstombs
 0001:000B9C40  ___org_wctomb
 0003:0000E8DC  ___pCPPdebugHook
 0001:000BF394  ___raiseDebuggerException
 0001:000B7568  ___read
 0001:000BA6C0  ___realcvt
 0002:0003EE10  ___terminatePTR
 0002:0003EE28  ___throwExceptionName
 0002:0003EE20  ___throwFileName
 0002:0003EE24  ___throwLineNumber
 0001:000B8608  ___tmpnam
 0002:0003EE14  ___unexpectdPTR
 0002:0000009E  ___useDynamicTLS
 0001:000BAC5C  ___utoa
 0001:000B89C0  ___vprinter
 0001:000B7698  ___write
 0001:000BC0CC  ___xcvt
 0001:000BC3A4  ___xcvtw
 0004:00000000  ___xxInfo
 0002:0003EAAC  ___xxPersonality
 0001:000BD280  __abort
 0001:000BD258  __abort_notify
 0001:00000168  __acrtused
 0001:000BF15C  __adjustClassAdr(void *, tpid *, tpid *)
 0001:000BA06F  __alldiv
 0001:000B78A4  __allocbuf
 0001:000BA164  __allrem
 0003:0000E48C  __argc
 0003:0000E454  __argv
 0002:0003E7E8  __argv0
 0001:000BD554  __argv_default_expand
 0002:0003E7E0  __argv_expand_ptr
 0001:000BCA18  __assert
 0001:000BA101  __aulldiv
 0001:000BA1F8  __aullrem
 0003:00007DD4  __borlndmm_GetMem
 0003:00007DC0  __bormm_pfn_AllocMem
 0003:00007DB8  __bormm_pfn_FreeMem
 0003:00007DBC  __bormm_pfn_GetMem
 0003:00007DC8  __bormm_pfn_HeapAddRef
 0003:00007DCC  __bormm_pfn_HeapRelease
 0003:00007DC4  __bormm_pfn_ReallocMem
 0001:000BD4B8  __c_exit
 0001:000BD4A0  __cexit
 0002:0003D080  __cfinfo_get
 0002:0003DC54  __chartype
 0001:000B7924  __chdrive
 0002:0003EEC8  __chtbl__ __call_terminate()
 0001:000BE178  __cleanup
 0001:000BA67C  __clear87
 0002:0003E794  __cmdline_escapes
 0001:000BA690  __control87
 0001:000BB334  __cvt_init
 0001:000BB668  __cvt_initw
 0002:0003EA94  __daylight
 0001:000002C4  __dbk_fcall_wrapper
 0003:0000A44C  __dbk_fcall_wrapper_addr
 0002:0003E454  __default87
 0003:0000E490  __dll_table
 0001:000BD26C  __do_abort
 0002:0003D610  __dosErrorToSV
 0003:0000A208  __doserrno
 0001:000B7FF8  __dup_handle
 0002:0003F854  __ectbl__ ___ExceptionHandler(_EXCEPTION_RECORD *, ERRbc *, _CONTEXT *, void *, unsigned long, unsigned long, unsigned long, unsigned long, unsigned long, unsigned long)
 0002:0003EEE8  __ectbl__ __call_terminate()
 0002:0003E6D0  __ectbl__ _internal_dbk_fcall_wrapper()
 0002:0003C754  __ectbl__ std::bad_cast::~bad_cast()
 0002:0003F88C  __ectbl__ std::bad_exception::bad_exception()
 0002:0003F8D0  __ectbl__ std::bad_exception::bad_exception(std::bad_exception&)
 0002:0003F8B8  __ectbl__ std::bad_exception::~bad_exception()
 0002:0003EDF0  __ectbl__ std::bad_typeid::~bad_typeid()
 0002:0003C738  __ectbl__ std::exception::exception()
 0002:0003C704  __ectbl__ std::exception::~exception()
 0003:0000E474  __env_lock
 0003:0000E468  __environ
 0003:0000E470  __envsize
 0003:0000E4AC  __exe_table
 0001:000BD484  __exit
 0001:000BF504  __exit_except
 0001:000B885C  __exit_streams
 0001:000BD62C  __exitargv
 0002:0003E734  __exitargv_ptr
 0002:0003E724  __exitbuf
 0002:0003E728  __exitfopen
 0002:0003E72C  __exitopen
 0001:000B67A4  __expand
 0001:000BDC20  __expandblock
 0001:000BA799  __f87_Exp
 0001:000BA791  __f87_Exp10
 0001:000BA78C  __f87_Exp2
 0001:000BA868  __f87_Log
 0001:000BA864  __f87_Log10
 0001:000BA860  __f87_Log2
 0001:000B8398  __fgetc
 0002:0003D088  __fileinfo
 0001:000BA2B4  __finite
 0001:000BA2D4  __finitel
 0002:0003E510  __floatconvert
 0001:000B7AD0  __flushout
 0002:0003D608  __fmode
 0002:0003D60C  __fmodeptr
 0001:000BA8F8  __fpreset
 0001:000B8060  __free_handle
 0001:000B4E3C  __free_heaps
 0001:000BA910  __ftol
 0001:000BA2F4  __ftoul
 0001:000BA940  __fuildq
 0001:000BA970  __fuistq
 0001:000BA994  __fxam
 0001:000001D8  __getHInstance
 0001:000B9420  __getLocaleNumericInfo
 0001:000B7FB8  __get_handle
 0001:000B7954  __getdrive
 0001:000BD4D0  __getenv_nolock
 0001:000BC7D4  __getmbcp
 0002:000000A7  __hInstance
 0001:000BD868  __handle_exitargv
 0001:000BD710  __handle_setargv
 0001:000BDAC8  __handle_wexitargv
 0001:000BD934  __handle_wsetargv
 0003:0000A140  __handles
 0001:00082F14  __hb_rddWorkAreaForceLink
 0002:0003C888  __heap_redirector
 0002:0003E494  __huge_dble
 0002:0003E490  __huge_flt
 0002:0003E49C  __huge_ldble
 0002:0003E4BC  __indefinite
 0001:000BC7DC  __initMBCSTable
 0001:000BF4EC  __init_except
 0001:000BE098  __init_exit_proc
 0001:000B8118  __init_handles
 0001:000BD57C  __init_setargv_handlers
 0001:000B87A8  __init_streams
 0001:000BD538  __init_wild_handlers
 0001:000B7B3C  __initfileinfo
 0001:000B7B2C  __initfmode
 0001:000BAD20  __initmatherr
 0001:000B6784  __internal_allocmem
 0001:000BD11C  __internal_dbk_fcall_wrapper
 0001:000B6758  __internal_free
 0001:000B679C  __internal_free_heaps
 0001:000B676C  __internal_malloc
 0001:000B67D8  __internal_realloc
 0001:000BEFF4  __isCompatTypeID(tpid *, tpid *, int, tpid * *)
 0001:000001D0  __isDLL
 0001:000BE504  __isDST
 0001:000BE368  __isDSTx
 0001:000BEF18  __isSameTypeID(tpid *, tpid *)
 0002:0003E8BC  __isWindows
 0001:000BC7EC  __ismbcalpha
 0001:000BC82C  __ismbcdigit
 0001:000BC848  __ismbcspace
 0001:000BA320  __isnan
 0001:000BA368  __isnanl
 0002:0003E62C  __kalpha
 0002:0003E62E  __kpunct
 0001:000BA089  __lldiv
 0001:000BA17E  __llmod
 0001:000BA04C  __llmul
 0001:000BA260  __llshl
 0001:000BA27C  __llshr
 0001:000BA11B  __lludiv
 0001:000BA212  __llumod
 0001:000BA298  __llushr
 0002:0003DE58  __lower
 0001:000BB010  __lrand
 0001:000BACC8  __ltoa
 0001:000B9848  __ltolower
 0001:000B98AC  __ltolower_lcid
 0001:000B9908  __ltoupper
 0001:000B996C  __ltoupper_lcid
 0001:0005BE70  __matherr
 0001:000BACF0  __matherrl
 0002:0003E528  __mathwhy
 0002:0003E4AA  __max_dble
 0002:0003E4A6  __max_flt
 0002:0003E4B2  __max_ldble
 0003:0000A324  __mbcsCodePage
 0003:0000A220  __mbctype
 0001:000BC864  __mbsnbcpy
 0001:000BC8B8  __mbsnbicmp
 0001:000BC978  __mbsrchr
 0002:0003E6C4  __messagefile
 0002:0003E6C0  __messagefunc
 0001:000B67C8  __msize
 0002:0003E388  __nextrealptr
 0002:0003E3F0  __nextrealwptr
 0002:0003D53C  __nfile
 0002:0003D084  __notUmask
 0002:0003F844  __odtbl__ ___ExceptionHandler(_EXCEPTION_RECORD *, ERRbc *, _CONTEXT *, void *, unsigned long, unsigned long, unsigned long, unsigned long, unsigned long, unsigned long)
 0002:0003F87C  __odtbl__ std::bad_exception::bad_exception()
 0002:0003F8A8  __odtbl__ std::bad_exception::~bad_exception()
 0002:0003C728  __odtbl__ std::exception::exception()
 0002:0003D540  __openfd
 0003:0000E484  __oscmd
 0003:0000E488  __osenv
 0002:0003BEEC  __pcre_OP_lengths
 0002:0003A660  __pcre_default_tables
 0001:000A0E20  __pcre_find_bracket
 0002:0003BA18  __pcre_hspace_list
 0001:000B3498  __pcre_is_newline
 0001:000B3880  __pcre_ord2utf
 0002:0003BB4C  __pcre_ucp_gbtable
 0002:0003BAD4  __pcre_ucp_gentype
 0002:0003BA88  __pcre_utf8_table1
 0002:0003BAA0  __pcre_utf8_table1_size
 0002:0003BAA4  __pcre_utf8_table2
 0002:0003BABC  __pcre_utf8_table3
 0002:0003BF88  __pcre_utf8_table4
 0002:0003BB80  __pcre_utt
 0002:0003BFC8  __pcre_utt_names
 0002:0003BEE8  __pcre_utt_size
 0001:000B38D0  __pcre_valid_utf
 0002:0003BA68  __pcre_vspace_list
 0001:000B3680  __pcre_was_newline
 0001:000B3D5C  __pcre_xclass
 0003:0000A078  __pidtab
 0002:0003E520  __pmatherr
 0002:0003E524  __pmatherrl
 0001:000BA464  __pow10
 0001:000BAF74  __qdiv10
 0001:000BAF9C  __qmul10
 0001:000B7824  __read
 0002:0003E384  __realcvtptr
 0002:0003E3EC  __realcvtwptr
 0001:000BB680  __round
 0001:000B6D2D  __rtl_memset
 0001:000B6D2D  __rtl_memset_
 0001:000B77C8  __rtl_read
 0001:000B7840  __rtl_write
 0001:000BBB80  __scan_init
 0001:000BC078  __scan_initw
 0001:000BA6D2  __scanrslt
 0002:0003E390  __scanrsltptr
 0001:000BA6CC  __scantod
 0002:0003E38C  __scantodptr
 0002:0003E3F8  __scanwrsltptr
 0002:0003E3F4  __scanwtodptr
 0001:000BD5A4  __setargv
 0002:0003E740  __setargv__
 0002:0003E730  __setargv_ptr
 0002:0003E808  __setenvp__
 0001:000BF4A0  __setexc
 0001:000BC69C  __setmbcp
 0001:000BE1AC  __startup
 0003:0000E4B4  __stkbase
 0002:0003C8A8  __stkchk
 0001:000B6A50  __stpcpy
 0002:0003D08C  __streams
 0001:000B68BC  __strerror
 0002:0003D748  __sys_errlist
 0002:0003D810  __sys_nerr
 0001:000BE088  __terminate
 0002:0003C750  __thrwl__ std::bad_cast::~bad_cast()
 0002:0003F878  __thrwl__ std::bad_exception::bad_exception()
 0002:0003F8A4  __thrwl__ std::bad_exception::~bad_exception()
 0002:0003EDEC  __thrwl__ std::bad_typeid::~bad_typeid()
 0002:0003C724  __thrwl__ std::exception::exception()
 0002:0003C700  __thrwl__ std::exception::~exception()
 0002:0003EA90  __timezone
 0002:0003E4C0  __tiny_ldble
 0003:0000A210  __tmpnum
 0001:000BE53C  __totalsec
 0001:000B4B18  __tpdsc__ std::bad_cast
 0001:000C1258  __tpdsc__ std::bad_exception
 0001:000C12EC  __tpdsc__ std::bad_exception *
 0001:000BF104  __tpdsc__ std::bad_typeid
 0001:000B4ACC  __tpdsc__ std::exception
 0001:000B4BA0  __tpdsc__ std::exception *
 0002:0003E50C  __turboFloat
 0001:000BEEE0  __typeIDname(tpid *)
 0002:0003EA98  __tzname
 0001:000BE8B4  __tzset
 0001:000BE6DC  __tzsetx
 0001:000B88AC  __unlink
 0001:000BF4BC  __unsetexc
 0001:000BF4E0  __unsetuserhandler
 0002:0003DF58  __upper
 0003:0000E4A4  __wC0argv
 0003:0000E4A8  __wC0environ
 0001:000BD568  __wargv_default_expand
 0002:0003E7E4  __wargv_expand_ptr
 0001:000B9BDC  __wctomb_quiet
 0002:0003E73C  __wexitargv_ptr
 0001:000B6FF5  __wmemset
 0001:000B6FB7  __wmemset_safe
 0003:0000E4A0  __woscmd
 0003:0000E49C  __wosenv
 0001:000B9418  __wremove
 0001:000B7888  __write
 0002:0003E738  __wsetargv_ptr
 0001:000B9384  __wunlink
 0001:000B93A0  __xfclose
 0001:000B93D0  __xfflush
 0001:000BD2F0  _abort
 0001:000B93F8  _access
 0001:000BA650  _atoi
 0001:000BA5E8  _atol
 0001:0002467C  _bulk_free
 0001:00023BC0  _calloc
 0001:000BA660  _ceil
 0001:00073994  _cleansPair
 0001:000B9400  _close
 0001:000BA708  _div
 0001:000B9408  _dup
 0001:00073EC0  _dv_memcpy
 0002:0003E2C4  _e0to7
 0002:0003E35C  _e1024
 0002:0003E33E  _e128
 0002:0003E320  _e16
 0002:0003E366  _e2048
 0002:0003E348  _e256
 0002:0003E32A  _e32
 0002:0003E370  _e4096
 0002:0003E352  _e512
 0002:0003E334  _e64
 0002:0003E314  _e8
 0002:0003E37A  _eINF
 0002:0003E6BC  _errno
 0001:000BD468  _exit
 0001:000BA720  _exp
 0001:000B79C0  _fclose
 0001:000B7A50  _fflush
 0001:000B83B0  _fgetc
 0001:00052410  _file_read
 0001:000BA8A8  _fmod
 0001:000B7D54  _fopen
 0001:000B7D6C  _fprintf
 0001:000B849C  _fputc
 0001:000233F8  _free
 0001:000B4D60  _free
 0001:000B7ED4  _fseek
 0001:000B7F38  _ftell
 0001:000BA910  _ftol()
 0003:0000E8E8  _getExceptionObject
 0001:000BD528  _getenv
 0001:00049E34  _hb_AtSkipStrings
 0001:000628A8  _hb_GetDefaultPrinter
 0001:00062E04  _hb_GetPrinterNameByPort
 0001:0005C85C  _hb_MaxCol
 0001:0005C7F4  _hb_MaxRow
 0001:000520C0  _hb_ParseLine
 0001:00062FB0  _hb_PrintFileRaw
 0001:0006274C  _hb_PrinterExists
 0001:00062A60  _hb_SetDefaultPrinter
 0001:00019AA0  _hb___msgGetClsData
 0001:00019BDC  _hb___msgGetData
 0001:00019B38  _hb___msgGetShrData
 0001:00019AE4  _hb___msgSetClsData
 0001:00019C1C  _hb___msgSetData
 0001:00019B80  _hb___msgSetShrData
 0001:0000F934  _hb_arrayAdd
 0001:0000F998  _hb_arrayAddForward
 0001:00011238  _hb_arrayBaseParams
 0001:00011108  _hb_arrayClone
 0001:00010F90  _hb_arrayClone2
 0001:00010FB0  _hb_arrayCloneEx
 0001:00010E90  _hb_arrayCopy
 0001:00010098  _hb_arrayCopyC
 0001:0000F9FC  _hb_arrayDel
 0001:00010B60  _hb_arrayEval
 0001:00010674  _hb_arrayFill
 0001:00011190  _hb_arrayFromParams
 0001:00011138  _hb_arrayFromStack
 0001:0000FBD4  _hb_arrayGet
 0001:0000FCA4  _hb_arrayGetByRef
 0001:000100F0  _hb_arrayGetC
 0001:00010184  _hb_arrayGetCLen
 0001:00010140  _hb_arrayGetCPtr
 0001:0000FE00  _hb_arrayGetDL
 0001:0000FD68  _hb_arrayGetDS
 0001:0000FEC0  _hb_arrayGetDTD
 0001:0000FDB4  _hb_arrayGetDTS
 0001:0000FE80  _hb_arrayGetDTsec
 0001:0000FC3C  _hb_arrayGetForward
 0001:0000FF00  _hb_arrayGetItemPtr
 0001:0000FF34  _hb_arrayGetL
 0001:00010054  _hb_arrayGetND
 0001:0000FF6C  _hb_arrayGetNI
 0001:00010018  _hb_arrayGetNInt
 0001:0000FFA4  _hb_arrayGetNL
 0001:0000FFDC  _hb_arrayGetNLL
 0001:0001131C  _hb_arrayGetNS
 0001:000101C8  _hb_arrayGetPtr
 0001:0000FE40  _hb_arrayGetT
 0001:00010200  _hb_arrayGetType
 0001:0000F91C  _hb_arrayId
 0001:0000FAA0  _hb_arrayIns
 0001:0000F8F8  _hb_arrayIsObject
 0001:00010608  _hb_arrayLast
 0001:0000F8DC  _hb_arrayLen
 0001:00011318  _hb_arrayMode
 0001:0000F668  _hb_arrayNew
 0001:00010E5C  _hb_arrayRelease
 0001:00010DB4  _hb_arrayReleaseBase
 0001:000112A0  _hb_arrayReleaseGarbage
 0001:000106E4  _hb_arrayScan
 0001:00011248  _hb_arraySelfParams
 0001:0000FB24  _hb_arraySet
 0001:000104AC  _hb_arraySetC
 0001:000104F0  _hb_arraySetCL
 0001:00010538  _hb_arraySetCPtr
 0001:0001027C  _hb_arraySetDL
 0001:00010238  _hb_arraySetDS
 0001:0000FB7C  _hb_arraySetForward
 0001:00010308  _hb_arraySetL
 0001:00010464  _hb_arraySetND
 0001:0001034C  _hb_arraySetNI
 0001:0001041C  _hb_arraySetNInt
 0001:00010390  _hb_arraySetNL
 0001:000103D4  _hb_arraySetNLL
 0001:00011354  _hb_arraySetNS
 0001:00010580  _hb_arraySetPtr
 0001:000105C4  _hb_arraySetPtrGC
 0001:000102C0  _hb_arraySetTDT
 0001:0000F6FC  _hb_arraySize
 0001:00014F00  _hb_arraySort
 0001:000497C8  _hb_backgroundActive
 0001:00049398  _hb_backgroundAddFunc
 0001:00049670  _hb_backgroundDelFunc
 0001:00049794  _hb_backgroundFind
 0001:000495FC  _hb_backgroundReset
 0001:00049464  _hb_backgroundRun
 0001:00049568  _hb_backgroundRunForced
 0001:000495B4  _hb_backgroundRunSingle
 0001:00049618  _hb_backgroundShutDown
 0001:000497EC  _hb_backgroundTime
 0001:00078810  _hb_builddate
 0001:0004B564  _hb_cdpDup
 0001:0004AA4C  _hb_cdpFind
 0001:0004AD40  _hb_cdpGetChar
 0001:0004B108  _hb_cdpGetFromUTF8
 0001:0004ACEC  _hb_cdpGetU16
 0001:0004AADC  _hb_cdpID
 0001:0004A688  _hb_cdpRegister
 0001:0004BF70  _hb_cdpReleaseAll
 0001:0004AAC4  _hb_cdpSelect
 0001:0004AAF4  _hb_cdpSelectID
 0001:0004AF7C  _hb_cdpStringInUTF8Length
 0001:0004AFC0  _hb_cdpStringInUTF8Length2
 0001:0004B3E0  _hb_cdpStrnToU16
 0001:0004B18C  _hb_cdpStrnToUTF8
 0001:0004B294  _hb_cdpStrnToUTF8n
 0001:0004AB18  _hb_cdpTranslate
 0001:0004AF28  _hb_cdpUTF8StringLength
 0001:0004AE98  _hb_cdpUTF8StringPeek
 0001:0004ADB0  _hb_cdpUTF8StringSubstr
 0001:0004B00C  _hb_cdpUTF8ToStrn
 0002:000131C4  _hb_cdp_page
 0001:0004AA70  _hb_cdpcharsetFind
 0001:0004B8C8  _hb_cdpchrcmp
 0001:0004B990  _hb_cdpcmp
 0001:0004BCAC  _hb_cdpicmp
 0001:0004B590  _hb_cdpnDup
 0001:0004B6A4  _hb_cdpnDup2
 0001:0004B50C  _hb_cdpnDup2Len
 0001:0004B76C  _hb_cdpnDup3
 0001:0004B4BC  _hb_cdpnDupLen
 0001:0004ABFC  _hb_cdpnTranslate
 0001:0004A400  _hb_cdppage
 0001:00061660  _hb_charLower
 0001:0006169C  _hb_charUpper
 0001:0001AA60  _hb_clsAdd
 0001:0001AA90  _hb_clsAddData
 0001:0001AAD8  _hb_clsAddDataInit
 0001:0001AAC0  _hb_clsAssociate
 0001:00019CFC  _hb_clsClassesArray
 0001:00015244  _hb_clsClearAll
 0001:00015218  _hb_clsClearAllClassDatas
 0001:0001AA40  _hb_clsCreate
 0001:00017F88  _hb_clsDeactiveClass
 0001:00015210  _hb_clsDestructorsAllowed
 0001:00015208  _hb_clsDisableDestructors
 0001:00019D40  _hb_clsFinalize
 0001:0001A240  _hb_clsGetHandleFromName
 0001:00015F04  _hb_clsHasMsg
 0001:00015100  _hb_clsInit
 0001:0001824C  _hb_clsInst
 0001:000152F8  _hb_clsIsClassRef
 0001:000157F8  _hb_clsIsParent
 0001:00019D04  _hb_clsMaxClasses
 0001:0001597C  _hb_clsName
 0001:00015270  _hb_clsReleaseAll
 0001:0001A43C  _hb_clsSetModule
 0001:0001A4B4  _hb_clsSetScope
 0001:0001A16C  _hb_clsSymbolFromFunction
 0002:000106EC  _hb_cls_uiArrayClass
 0002:000106EE  _hb_cls_uiBlockClass
 0002:000106F0  _hb_cls_uiCharacterClass
 0002:000106F2  _hb_cls_uiDateClass
 0002:000106FE  _hb_cls_uiHashClass
 0002:000106F6  _hb_cls_uiLogicalClass
 0002:000106F8  _hb_cls_uiNilClass
 0002:000106FA  _hb_cls_uiNumericClass
 0002:000106FC  _hb_cls_uiPointerClass
 0002:000106F4  _hb_cls_uiTimeFlagClass
 0001:00047A8C  _hb_cmdargARGC
 0001:00047A94  _hb_cmdargARGV
 0001:00047C80  _hb_cmdargCheck
 0001:00047A74  _hb_cmdargInit
 0001:00047A9C  _hb_cmdargIsInternal
 0001:00047CB0  _hb_cmdargNum
 0001:00047DF8  _hb_cmdargProcessVM
 0001:00047C9C  _hb_cmdargString
 0001:0001AC88  _hb_codeblockDelete
 0001:0001AD0C  _hb_codeblockDeleteGarbage
 0001:0001ADD0  _hb_codeblockGetRef
 0001:0001AD84  _hb_codeblockGetVar
 0001:0001AC28  _hb_codeblockMacroNew
 0001:0001AB08  _hb_codeblockNew
 0001:00040938  _hb_compCodeBlockEnd
 0001:000408F8  _hb_compCodeBlockStart
 0001:00078E90  _hb_compExprAddListExpr
 0001:00079318  _hb_compExprAssign
 0001:0006AD2C  _hb_compExprCBVarAdd
 0001:0006AFDC  _hb_compExprCBVarDel
 0001:00071584  _hb_compExprCheckMacroVar
 0001:00078878  _hb_compExprClear
 0001:0007888C  _hb_compExprClone
 0001:00070D88  _hb_compExprDelOperator
 0001:0006ACAC  _hb_compExprDelete
 0001:00078898  _hb_compExprDescription
 0001:0006ACF4  _hb_compExprErrorType
 0001:0006ACDC  _hb_compExprFree
 0001:0006AFBC  _hb_compExprGenPop
 0001:0006AF7C  _hb_compExprGenPush
 0001:0006AF3C  _hb_compExprGenStatement
 0001:00079330  _hb_compExprListLen
 0001:0007A790  _hb_compExprListStrip
 0001:0007A808  _hb_compExprListStripSingle
 0001:00078850  _hb_compExprNew
 0001:00078EF4  _hb_compExprNewAlias
 0001:00078D30  _hb_compExprNewAliasExpr
 0001:00078CF0  _hb_compExprNewAliasVar
 0001:0007911C  _hb_compExprNewAnd
 0001:00078E7C  _hb_compExprNewArgList
 0001:00078C44  _hb_compExprNewArray
 0001:0006AE7C  _hb_compExprNewArrayAt
 0001:00078FB4  _hb_compExprNewBitAnd
 0001:00078FCC  _hb_compExprNewBitOr
 0001:00079014  _hb_compExprNewBitShiftL
 0001:00078FFC  _hb_compExprNewBitShiftR
 0001:00078FE4  _hb_compExprNewBitXOr
 0001:00078B94  _hb_compExprNewCodeBlock
 0001:00078944  _hb_compExprNewDate
 0001:00078984  _hb_compExprNewDateTime
 0001:00078B48  _hb_compExprNewDateTimeVal
 0001:00078F6C  _hb_compExprNewDiv
 0001:000790D4  _hb_compExprNewDivEq
 0001:000788E8  _hb_compExprNewDouble
 0001:000791B0  _hb_compExprNewEQ
 0001:000788DC  _hb_compExprNewEmpty
 0001:00078F0C  _hb_compExprNewEqual
 0001:00079104  _hb_compExprNewExpEq
 0001:000788C4  _hb_compExprNewExtBlock
 0001:0006ADC8  _hb_compExprNewFunCall
 0001:0006AE2C  _hb_compExprNewFunName
 0001:00078C24  _hb_compExprNewFunRef
 0001:00079210  _hb_compExprNewGE
 0001:000791E0  _hb_compExprNewGT
 0001:0006ADBC  _hb_compExprNewIIF
 0001:00079240  _hb_compExprNewIN
 0001:000791F8  _hb_compExprNewLE
 0001:000791C8  _hb_compExprNewLT
 0001:00079164  _hb_compExprNewLike
 0001:00078E68  _hb_compExprNewList
 0001:00078BAC  _hb_compExprNewLogical
 0001:00078918  _hb_compExprNewLong
 0001:00078C98  _hb_compExprNewMacro
 0001:0007914C  _hb_compExprNewMatch
 0001:00078C04  _hb_compExprNewMemVarRef
 0001:00078E48  _hb_compExprNewMethodCall
 0001:00078F3C  _hb_compExprNewMinus
 0001:000790A4  _hb_compExprNewMinusEq
 0001:00078F84  _hb_compExprNewMod
 0001:000790EC  _hb_compExprNewModEq
 0001:00078F54  _hb_compExprNewMult
 0001:000790BC  _hb_compExprNewMultEq
 0001:00079228  _hb_compExprNewNE
 0001:0006AE64  _hb_compExprNewNamespaceFunName
 0001:0006AE44  _hb_compExprNewNamespaceFunRef
 0001:00079258  _hb_compExprNewNegate
 0001:00078BC4  _hb_compExprNewNil
 0001:0007917C  _hb_compExprNewNot
 0001:00079134  _hb_compExprNewOr
 0001:00078F24  _hb_compExprNewPlus
 0001:0007908C  _hb_compExprNewPlusEq
 0001:00079044  _hb_compExprNewPostDec
 0001:0007902C  _hb_compExprNewPostInc
 0001:00078F9C  _hb_compExprNewPower
 0001:00079074  _hb_compExprNewPreDec
 0001:0007905C  _hb_compExprNewPreInc
 0001:00078ED0  _hb_compExprNewRTVar
 0001:00078BD4  _hb_compExprNewSelf
 0001:00078D60  _hb_compExprNewSend
 0001:00078D88  _hb_compExprNewSendExp
 0001:00078B70  _hb_compExprNewString
 0001:00078EB8  _hb_compExprNewVar
 0001:00078BE4  _hb_compExprNewVarRef
 0001:00078E58  _hb_compExprNewWithMethodCall
 0001:00078DD8  _hb_compExprNewWithSend
 0001:00078DFC  _hb_compExprNewWithSendExp
 0001:00070DB8  _hb_compExprPushOperEq
 0001:00071314  _hb_compExprPushPostOp
 0001:00071190  _hb_compExprPushPreOp
 0001:0007A314  _hb_compExprReduceAnd
 0001:0007A588  _hb_compExprReduceBitOp
 0001:00079404  _hb_compExprReduceDiv
 0001:0007A140  _hb_compExprReduceEQ
 0001:00079C80  _hb_compExprReduceGE
 0001:00079EE0  _hb_compExprReduceGT
 0001:0007A6D4  _hb_compExprReduceIIF
 0001:00079A6C  _hb_compExprReduceIN
 0001:00079DB0  _hb_compExprReduceLE
 0001:0007A010  _hb_compExprReduceLT
 0001:00071540  _hb_compExprReduceList
 0001:00079724  _hb_compExprReduceMinus
 0001:0007936C  _hb_compExprReduceMod
 0001:000795A4  _hb_compExprReduceMult
 0001:00079AF0  _hb_compExprReduceNE
 0001:0007A44C  _hb_compExprReduceOr
 0001:000798A0  _hb_compExprReducePlus
 0001:000715DC  _hb_compExprReducePlusStrings
 0001:0007A858  _hb_compExprReduceUPPER
 0001:0006AEA0  _hb_compExprSetOperand
 0001:000788B8  _hb_compExprType
 0001:00071418  _hb_compExprUseAliasMacro
 0001:00070F94  _hb_compExprUseOperEq
 0001:000713A4  _hb_compExprUsePreOp
 0001:00071BCC  _hb_compFlexDelete
 0001:00071BA8  _hb_compFlexNew
 0001:0003FED8  _hb_compGenJump
 0001:0003FF20  _hb_compGenJumpFalse
 0001:0003FFAC  _hb_compGenJumpHere
 0001:0003FF68  _hb_compGenJumpThere
 0001:0003FFC8  _hb_compGenJumpTrue
 0001:00040304  _hb_compGenMessage
 0001:00040334  _hb_compGenMessageData
 0001:00040740  _hb_compGenPCode1
 0001:00040780  _hb_compGenPCode2
 0001:000407CC  _hb_compGenPCode3
 0001:00040828  _hb_compGenPCode4
 0001:00040890  _hb_compGenPCodeN
 0001:000403C4  _hb_compGenPopAliasedVar
 0001:00040384  _hb_compGenPopVar
 0001:00040558  _hb_compGenPushAliasedVar
 0001:00040298  _hb_compGenPushDate
 0001:00040690  _hb_compGenPushDouble
 0001:000406CC  _hb_compGenPushFunCall
 0001:00040668  _hb_compGenPushLogical
 0001:00040170  _hb_compGenPushLong
 0001:00040540  _hb_compGenPushMemVarRef
 0001:0004070C  _hb_compGenPushString
 0001:00040064  _hb_compGenPushSymbol
 0001:000404BC  _hb_compGenPushVar
 0001:000404FC  _hb_compGenPushVarRef
 0001:0003FE78  _hb_compLocalVarGetPos
 0001:00040010  _hb_compMemvarGenPCode
 0001:0007A9B4  _hb_compReservedName
 0001:0007506C  _hb_compStrToNum
 0001:00075098  _hb_compStrToNumErr
 0002:00036138  _hb_comp_ExprTable
 0002:00011EA0  _hb_comp_bShortCuts
 0001:0007C208  _hb_comp_datetimeDecStr
 0001:0007C1D8  _hb_comp_datetimeEncStr
 0001:0007C23C  _hb_comp_datetimeEncode
 0001:0004CB4C  _hb_conInit
 0001:0004CBF8  _hb_conNewLine
 0001:0004CC98  _hb_conOutAlt
 0001:0004CC4C  _hb_conOutErr
 0001:0004CC14  _hb_conOutStd
 0001:0004CBCC  _hb_conRelease
 0001:0006069C  _hb_conSetColor
 0001:000607F4  _hb_conSetCursor
 0001:00066300  _hb_conXSaveRestRelease
 0001:000479CC  _hb_console_safe_lock
 0001:000479D0  _hb_console_safe_unlock
 0001:00078848  _hb_credits
 0001:0004D6EC  _hb_dateCDOW
 0001:0004D6C4  _hb_dateCMonth
 0001:0007B638  _hb_dateDOW
 0001:0007AD68  _hb_dateDecStr
 0001:0007AB10  _hb_dateDecode
 0001:0007ADC0  _hb_dateEncStr
 0001:0007AA14  _hb_dateEncode
 0001:0007ADF8  _hb_dateFormat
 0001:0007B128  _hb_dateJulianDOW
 0001:0005F254  _hb_dateMilliSeconds
 0001:0005F2DC  _hb_dateSeconds
 0001:0007ACE4  _hb_dateStrGet
 0001:0007AC04  _hb_dateStrPut
 0001:0007BAC4  _hb_dateTime
 0001:0005F1E4  _hb_dateTimeStamp
 0001:0007B8A0  _hb_dateTimeStampStr
 0001:0007B918  _hb_dateTimeStampStrGet
 0001:0007B6D0  _hb_dateTimeStr
 0001:0007B6A0  _hb_dateToday
 0001:0007C0A4  _hb_datetimeDecStr
 0001:0007BF3C  _hb_datetimeDecode
 0001:0007C058  _hb_datetimeEncStr
 0001:0007BE2C  _hb_datetimeEncode
 0001:0007B5D0  _hb_datetimeFormat
 0001:0007C0D0  _hb_datetimePack
 0001:0007C0E8  _hb_datetimePackInSec
 0001:0007C118  _hb_datetimeUnpack
 0001:0008D244  _hb_dbQSortAdvance
 0001:0008D70C  _hb_dbQSortComplete
 0001:0008D1E4  _hb_dbQSortExit
 0001:0008D140  _hb_dbQSortInit
 0001:00084454  _hb_dbTransStruct
 0001:0007B708  _hb_dbaselockEncode
 0001:00085DE8  _hb_dbfGetEGcode
 0001:00085EB8  _hb_dbfGetMemoBlock
 0001:00085FF0  _hb_dbfGetMemoData
 0001:000863F8  _hb_dbfLockIdxFile
 0001:00086310  _hb_dbfLockIdxGetData
 0001:00085F4C  _hb_dbfPutMemoBlock
 0001:000861BC  _hb_dbfSetMemoData
 0001:0008AF9C  _hb_dbfTranslateRec
 0001:0003C028  _hb_dbg_InvokeDebug
 0001:0003C06C  _hb_dbg_ProcLevel
 0001:0003C03C  _hb_dbg_SetEntry
 0001:0003C174  _hb_dbg_vmVarGCount
 0001:0003C180  _hb_dbg_vmVarGGet
 0001:0003C050  _hb_dbg_vmVarSGet
 0001:000752A0  _hb_dblToStr
 0001:0001B3A4  _hb_dynsymAreaHandle
 0001:0001B478  _hb_dynsymCount
 0001:0001B3C0  _hb_dynsymEval
 0001:0001B15C  _hb_dynsymFind
 0001:0001B110  _hb_dynsymFindName
 0001:0001B294  _hb_dynsymFindNameWithNamespaces
 0001:0001B348  _hb_dynsymFindSymbol
 0001:0001B22C  _hb_dynsymFindWithNamespaces
 0001:0001AF74  _hb_dynsymGet
 0001:0001B004  _hb_dynsymGetCase
 0001:0001B058  _hb_dynsymGetCaseWithNamespaces
 0001:0001B334  _hb_dynsymGetSymbol
 0001:0001B0B4  _hb_dynsymGetWithNamespaces
 0001:0001B380  _hb_dynsymIsFunction
 0001:0001B470  _hb_dynsymItems
 0001:0001ADEC  _hb_dynsymLog
 0001:0001B398  _hb_dynsymMemvarHandle
 0001:0001B370  _hb_dynsymName
 0001:0001AE74  _hb_dynsymNew
 0001:0001B450  _hb_dynsymPos
 0001:0001B3F8  _hb_dynsymRelease
 0001:0001B3B0  _hb_dynsymSetAreaHandle
 0001:0001B364  _hb_dynsymSymbol
 0001:0001C4A8  _hb_errExit
 0002:00010CD8  _hb_errFuncName
 0001:0001C9F8  _hb_errGetArgs
 0001:0001CCE8  _hb_errGetCallStack
 0001:0001C9C8  _hb_errGetCargo
 0001:0001CA28  _hb_errGetDescription
 0001:0001CA58  _hb_errGetFileName
 0001:0001CD48  _hb_errGetFlags
 0001:0001CA88  _hb_errGetGenCode
 0001:0001CCB8  _hb_errGetModuleName
 0001:0001CAB8  _hb_errGetOperation
 0001:0001CB04  _hb_errGetOsCode
 0001:0001CBF4  _hb_errGetProcLine
 0001:0001CBC4  _hb_errGetProcName
 0001:0001CC58  _hb_errGetRunningThreads
 0001:0001CB34  _hb_errGetSeverity
 0001:0001CB64  _hb_errGetSubCode
 0001:0001CB94  _hb_errGetSubSystem
 0001:0001CC24  _hb_errGetThreadId
 0001:0001CD18  _hb_errGetTries
 0001:0001CC88  _hb_errGetVmThreadId
 0001:0001C448  _hb_errInit
 0001:0001D5C0  _hb_errInternal
 0001:0001C5FC  _hb_errLaunch
 0001:0001C828  _hb_errLaunchSubst
 0001:0001C4D0  _hb_errNew
 0001:0001CDC8  _hb_errPutArgs
 0001:0001CA0C  _hb_errPutArgsArray
 0001:0001CCFC  _hb_errPutCallStack
 0001:0001C9DC  _hb_errPutCargo
 0001:0001CA3C  _hb_errPutDescription
 0001:0001CA6C  _hb_errPutFileName
 0001:0001CD5C  _hb_errPutFlags
 0001:0001CA9C  _hb_errPutGenCode
 0001:0001CCCC  _hb_errPutModuleName
 0001:0001CACC  _hb_errPutOperation
 0001:0001CB18  _hb_errPutOsCode
 0001:0001CC08  _hb_errPutProcLine
 0001:0001CBD8  _hb_errPutProcName
 0001:0001CC6C  _hb_errPutRunningThreads
 0001:0001CB48  _hb_errPutSeverity
 0001:0001CB78  _hb_errPutSubCode
 0001:0001CBA8  _hb_errPutSubSystem
 0001:0001CC38  _hb_errPutThreadId
 0001:0001CD2C  _hb_errPutTries
 0001:0001CC9C  _hb_errPutVmThreadId
 0001:0001D134  _hb_errRT_BASE
 0001:0001D20C  _hb_errRT_BASE_Ext1
 0001:0001D2E8  _hb_errRT_BASE_Subst
 0001:0001D3C0  _hb_errRT_BASE_SubstR
 0001:0001D4E4  _hb_errRT_DBCMD
 0001:0001D534  _hb_errRT_DBCMD_Ext
 0001:0001D010  _hb_errRT_FileError
 0001:0001CE1C  _hb_errRT_New
 0001:0001CECC  _hb_errRT_New_Subst
 0001:0001CFAC  _hb_errRT_SubstParams
 0001:0001D49C  _hb_errRT_TERM
 0001:0001D57C  _hb_errRT_TOOLS
 0001:0001C9B8  _hb_errRelease
 0001:0001C3C4  _hb_errorBlock
 0001:0001C3F4  _hb_errorHandler
 0001:0001E6B4  _hb_evalBlock
 0001:0001E664  _hb_evalBlock0
 0001:0001E688  _hb_evalBlock1
 0001:0001E288  _hb_evalLaunch
 0001:0001E224  _hb_evalNew
 0001:0001E254  _hb_evalPutParam
 0001:0001E35C  _hb_evalRelease
 0001:0001EA54  _hb_execFromArray
 0001:0001ED78  _hb_extIsArray
 0001:0001EDC8  _hb_extIsObject
 0001:0004FF58  _hb_fileClose
 0001:00050060  _hb_fileCommit
 0001:00050080  _hb_fileCreateTemp
 0001:000500C0  _hb_fileCreateTempEx
 0001:0004FE10  _hb_fileDelete
 0001:0004FE54  _hb_fileExists
 0001:0004FEEC  _hb_fileExtOpen
 0001:00050048  _hb_fileFlush
 0001:00050070  _hb_fileHandle
 0001:0004FF68  _hb_fileLock
 0001:0004FF8C  _hb_fileReadAt
 0001:0005002C  _hb_fileReadLarge
 0001:0004FDD0  _hb_fileRegister
 0001:0004FEA0  _hb_fileRename
 0001:0004FFF4  _hb_fileSeekLarge
 0001:0004FFE4  _hb_fileSize
 0001:0004FFCC  _hb_fileTruncAt
 0001:0004FFAC  _hb_fileWriteAt
 0001:00050010  _hb_fileWriteLarge
 0001:00050104  _hb_filebufInit
 0001:000739A8  _hb_fopen
 0001:0005F578  _hb_freeregex
 0001:000739E8  _hb_fsAddSearchPath
 0001:00055AA4  _hb_fsAttrDecode
 0001:0005599C  _hb_fsAttrEncode
 0001:0005586C  _hb_fsAttrFromRaw
 0001:00055904  _hb_fsAttrToRaw
 0001:00051578  _hb_fsChDir
 0001:00051730  _hb_fsChDrv
 0001:00050940  _hb_fsClose
 0001:0005075C  _hb_fsCloseProcess
 0001:00051008  _hb_fsCommit
 0001:00050824  _hb_fsCreate
 0001:000508B0  _hb_fsCreateEx
 0001:00052D40  _hb_fsCreateTemp
 0001:00052DF8  _hb_fsCreateTempEx
 0001:00051610  _hb_fsCurDir
 0001:00051634  _hb_fsCurDirBuff
 0001:00051BA4  _hb_fsCurDirBuffEx
 0001:00051B80  _hb_fsCurDirEx
 0001:000517B4  _hb_fsCurDrv
 0001:0005146C  _hb_fsDelete
 0001:00073D68  _hb_fsDirExists
 0001:00051AB4  _hb_fsEof
 0001:00051F74  _hb_fsError
 0001:00051870  _hb_fsExtName
 0001:000519D8  _hb_fsExtOpen
 0001:00073BC8  _hb_fsFNameMerge
 0001:00073AA0  _hb_fsFNameSplit
 0001:00052A58  _hb_fsFSize
 0001:0004F380  _hb_fsFile
 0001:00073D18  _hb_fsFileExists
 0001:00055F6C  _hb_fsFindClose
 0001:00055D14  _hb_fsFindFirst
 0001:00055EFC  _hb_fsFindNext
 0001:00073A70  _hb_fsFreeSearchPath
 0001:00050A9C  _hb_fsGetAttr
 0001:00051F68  _hb_fsGetFError
 0001:000509D8  _hb_fsGetFileTime
 0001:00050300  _hb_fsGetOsHandle
 0001:00051838  _hb_fsIsDevice
 0001:0004F440  _hb_fsIsDirectory
 0001:000517E8  _hb_fsIsDrv
 0001:00051034  _hb_fsLock
 0001:00051160  _hb_fsLockLarge
 0001:00073DB8  _hb_fsMaxFilesError
 0001:0005152C  _hb_fsMkDir
 0001:00051C3C  _hb_fsNameConv
 0001:00073CCC  _hb_fsNameExists
 0001:00050798  _hb_fsOpen
 0001:00050328  _hb_fsOpenProcess
 0001:00051F80  _hb_fsOsError
 0001:00050310  _hb_fsPOpen
 0001:000506E4  _hb_fsProcessValue
 0001:00050CAC  _hb_fsRead
 0001:00050E1C  _hb_fsReadAt
 0001:00050D78  _hb_fsReadLarge
 0001:000514B8  _hb_fsRename
 0001:000515C4  _hb_fsRmDir
 0001:000512C4  _hb_fsSeek
 0001:00051348  _hb_fsSeekLarge
 0001:00050C24  _hb_fsSetAttr
 0001:0005096C  _hb_fsSetDevMode
 0001:00051FA0  _hb_fsSetError
 0001:00051F8C  _hb_fsSetFError
 0001:00050B00  _hb_fsSetFileTime
 0001:00051FB8  _hb_fsSetIOError
 0001:00051454  _hb_fsTell
 0001:00052E90  _hb_fsTempDir
 0001:00050F84  _hb_fsTruncAt
 0001:00050D04  _hb_fsWrite
 0001:00050ED0  _hb_fsWriteAt
 0001:00050DB8  _hb_fsWriteLarge
 0001:00024C74  _hb_gcAlloc
 0001:000257C4  _hb_gcCollect
 0001:000257D0  _hb_gcCollectAll
 0001:00024CE0  _hb_gcDecRef
 0001:00024DBC  _hb_gcDummyMark
 0001:00024D34  _hb_gcFree
 0001:00024DB0  _hb_gcFunc
 0001:00024E2C  _hb_gcGripDrop
 0001:00024DCC  _hb_gcGripGet
 0001:00024CD0  _hb_gcIncRef
 0001:00025A4C  _hb_gcInit
 0001:00024F18  _hb_gcItemRef
 0001:00024E7C  _hb_gcLock
 0001:00025980  _hb_gcReleaseAll
 0001:00025A7C  _hb_gcSetCollecting
 0001:00024EC4  _hb_gcUnlock
 0001:00047968  _hb_get_Area_Handle_From_Name
 0001:00047948  _hb_get_Area_Handle_From_Sym
 0001:00047990  _hb_get_Area_Sym
 0001:00073DC8  _hb_getenv
 0001:0005F4B0  _hb_getregex
 0001:00053B80  _hb_gtAlert
 0001:000536F0  _hb_gtBeginWrite
 0001:00053090  _hb_gtBox
 0001:000530F8  _hb_gtBoxD
 0001:00053DC4  _hb_gtBoxEx
 0001:00053164  _hb_gtBoxS
 0001:0005322C  _hb_gtColorSelect
 0001:0005331C  _hb_gtColorToN
 0001:00053340  _hb_gtColorsToString
 0001:00053250  _hb_gtDispBegin
 0001:0005326C  _hb_gtDispCount
 0001:00053288  _hb_gtDispEnd
 0001:000531D0  _hb_gtDrawBox
 0001:00053950  _hb_gtDrawShadow
 0001:000536F4  _hb_gtEndWrite
 0001:00053018  _hb_gtExit
 0001:00053CFC  _hb_gtFlush
 0001:0005370C  _hb_gtGetBlink
 0001:00053674  _hb_gtGetChar
 0001:00053C40  _hb_gtGetClearChar
 0001:00053C00  _hb_gtGetClearColor
 0001:000532F0  _hb_gtGetColorStr
 0001:00053BE4  _hb_gtGetCurrColor
 0001:0005339C  _hb_gtGetCursor
 0001:00053410  _hb_gtGetPos
 0001:00053D14  _hb_gtGetPosEx
 0001:00053C84  _hb_gtGetScrChar
 0001:00053E30  _hb_gtGfxPrimitive
 0001:00053E78  _hb_gtGfxText
 0001:00053B50  _hb_gtInfo
 0001:00052F78  _hb_gtInit
 0001:00053584  _hb_gtIsColor
 0001:00059A7C  _hb_gtLoad
 0001:00053494  _hb_gtMaxCol
 0001:000534B0  _hb_gtMaxRow
 0001:00053AB4  _hb_gtOutErr
 0001:00053A7C  _hb_gtOutStd
 0001:000532D0  _hb_gtPostExt
 0001:000532B0  _hb_gtPreExt
 0001:000536B0  _hb_gtPutChar
 0001:00053CC0  _hb_gtPutScrChar
 0001:00053794  _hb_gtPutText
 0001:00053068  _hb_gtReadKey
 0001:00053540  _hb_gtRectSize
 0001:00059A48  _hb_gtRegister
 0001:000535A0  _hb_gtRepChar
 0001:0005362C  _hb_gtRest
 0001:00053A5C  _hb_gtResume
 0001:000535F0  _hb_gtSave
 0001:000534CC  _hb_gtScrDim
 0001:0005389C  _hb_gtScroll
 0001:00053D48  _hb_gtScrollEx
 0001:00053908  _hb_gtScrollUp
 0001:000539F4  _hb_gtSetAttribute
 0001:0005373C  _hb_gtSetBlink
 0001:00053C5C  _hb_gtSetClearChar
 0001:00053C1C  _hb_gtSetClearColor
 0001:00053378  _hb_gtSetColorStr
 0001:000533D0  _hb_gtSetCursor
 0001:00059A24  _hb_gtSetDefault
 0001:00053AEC  _hb_gtSetDispCP
 0001:00053BB8  _hb_gtSetFlag
 0001:00053B20  _hb_gtSetKeyCP
 0001:00053764  _hb_gtSetMode
 0001:0005345C  _hb_gtSetPos
 0001:00053518  _hb_gtSetSnowFlag
 0001:00059BF8  _hb_gtStartupInit
 0001:00053A3C  _hb_gtSuspend
 0001:00053998  _hb_gtTone
 0001:00059BB8  _hb_gtUnLoad
 0001:000539C8  _hb_gtVersion
 0001:0005382C  _hb_gtWrite
 0001:000537EC  _hb_gtWriteAt
 0001:00053864  _hb_gtWriteCon
 0001:00055FA8  _hb_gt_Base
 0001:000599C0  _hb_gt_FindDefault
 0001:00053F24  _hb_gt_getClipboard
 0001:00053EC0  _hb_gt_setClipboard
 0002:00013934  _hb_gt_szNameDefault
 0001:00054060  _hb_gt_w32_getClipboard
 0001:000545A8  _hb_gt_w32_getKbdState
 0001:00053F88  _hb_gt_w32_setClipboard
 0001:00054698  _hb_gt_w32_setKbdState
 0001:00054920  _hb_gt_w32_tone
 0002:00012120  _hb_hInstance
 0002:00012124  _hb_hPrevInstance
 0001:00028EF0  _hb_hashAAGetRealPos
 0001:00025F28  _hb_hashAdd
 0001:000263FC  _hb_hashAddForward
 0001:00026C34  _hb_hashClone
 0001:00026A04  _hb_hashGet
 0001:00028F40  _hb_hashGetCompatibility
 0001:00026ACC  _hb_hashGetForward
 0001:00027568  _hb_hashGetKeyAt
 0001:000273A0  _hb_hashGetKeys
 0001:000275D4  _hb_hashGetValueAt
 0001:00027484  _hb_hashGetValues
 0001:00028F64  _hb_hashId
 0001:00028F28  _hb_hashLen
 0001:00026D54  _hb_hashMerge
 0001:00025E6C  _hb_hashNew
 0001:00026B94  _hb_hashPreallocate
 0001:000272A0  _hb_hashRelease
 0001:000271E4  _hb_hashReleaseBase
 0001:00027310  _hb_hashReleaseGarbage
 0001:00026694  _hb_hashRemove
 0001:000265F8  _hb_hashScan
 0001:000268AC  _hb_hashSet
 0001:00027144  _hb_hashSetAACompatibility
 0001:00028920  _hb_hashSetCaseMatch
 0001:00026954  _hb_hashSetForward
 0001:00059D1C  _hb_hextonum
 0001:000480D0  _hb_i18nExit
 0001:00047FD8  _hb_i18nInit
 0001:000481F4  _hb_i18n_build_table_filename
 0001:00048848  _hb_i18n_load_language
 0001:000485F8  _hb_i18n_read_memory_table
 0001:00048478  _hb_i18n_read_table
 0001:000482A4  _hb_i18n_read_table_header
 0001:000480EC  _hb_i18n_scan_table
 0001:00048754  _hb_i18n_write_table
 0001:000483A8  _hb_i18n_write_table_header
 0002:00012128  _hb_iCmdShow
 0001:0005ACC4  _hb_idleAddFunc
 0001:0005AD8C  _hb_idleDelFunc
 0001:0005ABB8  _hb_idleReset
 0001:0005ABDC  _hb_idleShutDown
 0001:0005AC28  _hb_idleSleep
 0001:0005AB00  _hb_idleState
 0001:000479A0  _hb_idle_msec_default
 0001:000479A8  _hb_idle_releaseCPU
 0001:0005B3B8  _hb_inkey
 0001:0005B408  _hb_inkeyLast
 0001:0005B430  _hb_inkeyNext
 0001:0005B458  _hb_inkeyPoll
 0001:0005B3E8  _hb_inkeyPut
 0001:0005B4B8  _hb_inkeyReset
 0001:0005B4CC  _hb_inkeySetCancelKeys
 0001:0005B46C  _hb_inkeySetLast
 0001:0005B494  _hb_inkeySetText
 0001:000626F8  _hb_isLegacyDevice
 0001:00055350  _hb_isService
 0001:00077B78  _hb_iswince
 0001:00077B30  _hb_iswinnt
 0001:0003C348  _hb_itemArrayGet
 0001:0003C328  _hb_itemArrayNew
 0001:0003C374  _hb_itemArrayPut
 0001:0003E4EC  _hb_itemClear
 0001:0003D3BC  _hb_itemClone
 0001:0003E650  _hb_itemCopy
 0001:0003C42C  _hb_itemCopyC
 0001:0001E3A8  _hb_itemDo
 0001:0001E4F8  _hb_itemDoC
 0001:0001E57C  _hb_itemDoCRef
 0001:0003E1B8  _hb_itemEqual
 0001:0003E3F0  _hb_itemForwardValue
 0001:0003C468  _hb_itemFreeC
 0001:0003C3B0  _hb_itemGetC
 0001:0003C410  _hb_itemGetCLen
 0001:0003C3F4  _hb_itemGetCPtr
 0001:0003C5E4  _hb_itemGetD
 0001:0003C4E8  _hb_itemGetDL
 0001:0003C484  _hb_itemGetDS
 0001:0003C62C  _hb_itemGetDT
 0001:0003C57C  _hb_itemGetDTD
 0001:0003C5B0  _hb_itemGetDTL
 0001:0003C4B4  _hb_itemGetDTS
 0001:0003C548  _hb_itemGetDTsec
 0001:0003C6B4  _hb_itemGetL
 0001:0003C738  _hb_itemGetND
 0001:0003C7D4  _hb_itemGetNDDec
 0001:0003C898  _hb_itemGetNI
 0001:0003DF80  _hb_itemGetNInt
 0001:0003C908  _hb_itemGetNL
 0001:0003DDA8  _hb_itemGetNLL
 0001:0003CF6C  _hb_itemGetNLen
 0001:0003E16C  _hb_itemGetNS
 0001:0003C978  _hb_itemGetPtr
 0001:0003C990  _hb_itemGetPtrGC
 0001:0003C9C0  _hb_itemGetSymbol
 0001:0003C500  _hb_itemGetT
 0001:0003C518  _hb_itemGetTsec
 0001:0003D378  _hb_itemGetWriteCL
 0001:0003C2B0  _hb_itemNew
 0001:0003C2F8  _hb_itemPCount
 0001:0003DCD4  _hb_itemPadConv
 0001:0003C2C4  _hb_itemParam
 0001:0003ECD4  _hb_itemParamId
 0001:0003C2E0  _hb_itemParamPtr
 0001:0003E3BC  _hb_itemPushForward
 0001:0003EAA8  _hb_itemPushStaticString
 0001:0003E788  _hb_itemPutC
 0001:0003E7B0  _hb_itemPutCL
 0001:0003EA24  _hb_itemPutCLStatic
 0001:0003E944  _hb_itemPutCPtr
 0001:0003E978  _hb_itemPutCRaw
 0001:0003E9D4  _hb_itemPutCRawStatic
 0001:0003E9FC  _hb_itemPutCStatic
 0001:0003CA4C  _hb_itemPutD
 0001:0003CAE8  _hb_itemPutDL
 0001:0003C9FC  _hb_itemPutDS
 0001:0003CA74  _hb_itemPutDT
 0001:0003CB74  _hb_itemPutDTD
 0001:0003CB00  _hb_itemPutDTL
 0001:0003CA18  _hb_itemPutDTS
 0001:0003CB30  _hb_itemPutDTsec
 0001:0003C9DC  _hb_itemPutDate
 0001:0003DFF4  _hb_itemPutHBLong
 0001:0003CBAC  _hb_itemPutL
 0001:0003CBC8  _hb_itemPutND
 0001:0003CBE4  _hb_itemPutNDDec
 0001:0003CDD8  _hb_itemPutNDLen
 0001:0003CC68  _hb_itemPutNI
 0001:0003CE80  _hb_itemPutNILen
 0001:0003DEE0  _hb_itemPutNInt
 0001:0003DF2C  _hb_itemPutNIntLen
 0001:0003CCA4  _hb_itemPutNL
 0001:0003DE1C  _hb_itemPutNLL
 0001:0003DE78  _hb_itemPutNLLLen
 0001:0003CECC  _hb_itemPutNLLen
 0001:0003CCE0  _hb_itemPutNLen
 0001:0003E138  _hb_itemPutNS
 0001:0003E128  _hb_itemPutNull
 0001:0003E050  _hb_itemPutNumType
 0001:0003EA5C  _hb_itemPutPtr
 0001:0003EA7C  _hb_itemPutPtrGC
 0001:0003CF18  _hb_itemPutSymbol
 0001:0003CAC4  _hb_itemPutTDT
 0001:0003C308  _hb_itemRelease
 0001:0003E4A0  _hb_itemReleaseString
 0001:0003E43C  _hb_itemReturn
 0001:0003E45C  _hb_itemReturnForward
 0001:0003E47C  _hb_itemReturnRelease
 0001:0003C398  _hb_itemSetCMemo
 0001:0003CFD8  _hb_itemSize
 0001:0003D9D0  _hb_itemStr
 0001:0003D51C  _hb_itemStrBuf
 0001:0003D3F0  _hb_itemStrCmp
 0001:0003DA98  _hb_itemString
 0001:0003E618  _hb_itemSwap
 0001:0003D018  _hb_itemType
 0001:0003D02C  _hb_itemTypeStr
 0001:0003D1C4  _hb_itemUnRef
 0001:0003D1DC  _hb_itemUnRefOnce
 0001:0003D354  _hb_itemUnShare
 0001:0003D2D8  _hb_itemUnShareString
 0001:0003DD64  _hb_itemValToStr
 0001:0003C284  _hb_itemapiCheck
 0001:0005BB64  _hb_langDGetErrorDesc
 0001:0005BACC  _hb_langDGetItem
 0001:0005BA20  _hb_langDeRegister
 0001:0005BA48  _hb_langFind
 0001:0005BAF0  _hb_langID
 0001:0005BB08  _hb_langName
 0001:0005B9D0  _hb_langRegister
 0001:0005BA6C  _hb_langSelect
 0001:0005BAA8  _hb_langSelectID
 0001:0005B974  _hb_lang_ForceLink
 0001:0003F828  _hb_macroCompile
 0001:0003ED88  _hb_macroDelete
 0001:000408E4  _hb_macroError
 0001:0003F7FC  _hb_macroExpandString
 0001:0003FB28  _hb_macroGetType
 0001:0003F29C  _hb_macroGetValue
 0001:0003EFD8  _hb_macroIsIdent
 0001:0003F550  _hb_macroPopAliasedValue
 0001:0003F56C  _hb_macroPushAliasedValue
 0001:0003F998  _hb_macroPushSymbol
 0001:0003EEC8  _hb_macroRun
 0001:0003FCC4  _hb_macroSetMacro
 0001:0003F454  _hb_macroSetValue
 0001:0003F078  _hb_macroTextSubst
 0001:0003FAE8  _hb_macroTextValue
 0001:0006AC5C  _hb_macroYYParse
 0001:0006ACA4  _hb_macro_yyerror
 0001:00071C40  _hb_macro_yylex
 0001:00068280  _hb_macro_yyparse
 0001:0005BFA8  _hb_mathGetErrMode
 0001:0005C1D0  _hb_mathGetHandler
 0001:0005BDEC  _hb_mathGetLastError
 0001:0005BE68  _hb_mathIsMathErr
 0001:0005BD74  _hb_mathResetError
 0001:0005BF94  _hb_mathSetErrMode
 0001:0005C1BC  _hb_mathSetHandler
 0001:0005BFFC  _hb_matherr
 0001:0007C3FC  _hb_mbntowc
 0001:0007C370  _hb_mbtowc
 0001:0007C330  _hb_mbtowccpy
 0001:0007C350  _hb_mbtowcset
 0001:00041118  _hb_memvarCreateFromItem
 0001:00040BC8  _hb_memvarDetachLocal
 0001:00040E8C  _hb_memvarGet
 0001:00040C4C  _hb_memvarGetPrivatesBase
 0001:00040F70  _hb_memvarGetRefer
 0001:0004109C  _hb_memvarGetStrValuePtr
 0001:00040EF8  _hb_memvarGetValue
 0001:00042708  _hb_memvarGetValueByHandle
 0001:000427D8  _hb_memvarGetValueBySym
 0001:000426EC  _hb_memvarGetVarHandle
 0001:00041080  _hb_memvarNewParameter
 0001:00041508  _hb_memvarReleasePublic
 0001:0004142C  _hb_memvarScope
 0001:00040C60  _hb_memvarSetPrivatesBase
 0001:00040DD0  _hb_memvarSetValue
 0001:00040ADC  _hb_memvarValueBaseAddress
 0001:00040D7C  _hb_memvarValueDecGarbageRef
 0001:00040D30  _hb_memvarValueDecRef
 0001:00040CD8  _hb_memvarValueIncRef
 0001:00040AE4  _hb_memvarValueNew
 0001:000409C8  _hb_memvarsClear
 0001:00040A20  _hb_memvarsInit
 0001:000426B0  _hb_memvarsIsMemvarRef
 0001:00040A74  _hb_memvarsRelease
 0001:0005D1F8  _hb_mouseButtonPressed
 0001:0005D228  _hb_mouseButtonReleased
 0001:0005D1D0  _hb_mouseButtonState
 0001:0005D044  _hb_mouseCol
 0001:0005D1B4  _hb_mouseCountButton
 0001:0005D0F0  _hb_mouseGetBounds
 0001:0005D008  _hb_mouseGetCursor
 0001:0005D178  _hb_mouseGetDoubleClickSpeed
 0001:0005D07C  _hb_mouseGetPos
 0001:0005CFEC  _hb_mouseIsPresent
 0001:0005D258  _hb_mouseReadKey
 0001:0005D158  _hb_mouseRestoreState
 0001:0005D060  _hb_mouseRow
 0001:0005D138  _hb_mouseSaveState
 0001:0005D0C4  _hb_mouseSetBounds
 0001:0005D024  _hb_mouseSetCursor
 0001:0005D194  _hb_mouseSetDoubleClickSpeed
 0001:0005D0A0  _hb_mouseSetPos
 0001:0005D11C  _hb_mouseStorageSize
 0001:00019D38  _hb_mthAddTime
 0001:0005D6E8  _hb_netname
 0001:000749D4  _hb_numDecConv
 0001:00074A34  _hb_numExpConv
 0001:0007499C  _hb_numInt
 0001:000748AC  _hb_numRound
 0001:000751D8  _hb_numToStr
 0001:000193C8  _hb_objClassH
 0001:00018A54  _hb_objClone
 0001:0001586C  _hb_objGetClsName
 0001:00015B28  _hb_objGetClsSymbol
 0001:00015CC8  _hb_objGetMethod
 0001:00015D08  _hb_objGetMthd
 0001:00015AF8  _hb_objGetOpOver
 0001:000159AC  _hb_objGetRealCls
 0001:00015A14  _hb_objGetRealClsName
 0001:00015FB4  _hb_objGetpMethod
 0001:00015F6C  _hb_objGetpMthd
 0001:00015FF8  _hb_objHasMessage
 0001:00015FE0  _hb_objHasMsg
 0001:00018C34  _hb_objSendMessage
 0001:00018B6C  _hb_objSendMsg
 0001:00018BE4  _hb_objSendSymbol
 0001:000476A4  _hb_osDecodeCP
 0001:00047610  _hb_osEncodeCP
 0001:0001ECD8  _hb_param
 0001:0001ED54  _hb_paramError
 0001:0001EE3C  _hb_parc
 0001:0001EF28  _hb_parclen
 0001:0001EF9C  _hb_parcsiz
 0001:0001EEB0  _hb_parcx
 0001:0001F1D4  _hb_pardl
 0001:0001F018  _hb_pards
 0001:0001F144  _hb_pardsbuff
 0001:0001F3DC  _hb_pardtd
 0001:0001F0AC  _hb_pardts
 0001:0001F250  _hb_pardtsbuff
 0001:0001F360  _hb_pardtsec
 0001:0001F9A0  _hb_parinfa
 0001:0001F9E0  _hb_parinfo
 0001:0001F458  _hb_parl
 0001:0001F564  _hb_parnd
 0001:0001F630  _hb_parni
 0001:0001F7A8  _hb_parnint
 0001:0001F6E8  _hb_parnl
 0001:000207B4  _hb_parnll
 0001:000208A8  _hb_parns
 0001:0001F874  _hb_parptr
 0001:0001F8E8  _hb_parptrGC
 0001:0001F2E4  _hb_part
 0001:000209E8  _hb_partdt
 0001:0001FA68  _hb_pcount
 0001:00076514  _hb_printf_params
 0001:00042900  _hb_procinfo
 0001:0005A420  _hb_random_num
 0001:0008392C  _hb_rddAllocWorkAreaAlias
 0001:00083368  _hb_rddChangeSetWorkareasShared
 0001:00083394  _hb_rddCloseAll
 0001:00084C18  _hb_rddCloseAllParentRelations
 0001:000840B8  _hb_rddCreateTable
 0001:0008420C  _hb_rddCreateTableTemp
 0001:000835F8  _hb_rddDefaultDrv
 0001:00083A50  _hb_rddFieldExpIndex
 0001:00083DD0  _hb_rddFieldGet
 0001:000839C8  _hb_rddFieldIndex
 0001:00083E18  _hb_rddFieldPut
 0001:00082AC8  _hb_rddFindNode
 0001:000834C8  _hb_rddFlushAll
 0001:0008391C  _hb_rddGetAliasName
 0001:00047938  _hb_rddGetAliasNameTH
 0001:00083BC8  _hb_rddGetAliasNumber
 0001:000836EC  _hb_rddGetCurrentWorkAreaNumber
 0001:000836E0  _hb_rddGetCurrentWorkAreaPointer
 0001:00083E60  _hb_rddGetFieldValue
 0001:000835E0  _hb_rddGetNetErr
 0001:00082A08  _hb_rddGetNode
 0001:000838D0  _hb_rddGetTempAlias
 0001:000836A0  _hb_rddGetWorkAreaPointer
 0001:00082DF0  _hb_rddInherit
 0001:00082D14  _hb_rddInheritEx
 0001:00083200  _hb_rddInsertAreaNode
 0001:00083594  _hb_rddIterateWorkAreas
 0001:00082A2C  _hb_rddList
 0001:000837F4  _hb_rddNewAreaNode
 0001:00083F68  _hb_rddOpenTable
 0001:00083EE4  _hb_rddPutFieldValue
 0001:00082BA0  _hb_rddRegister
 0001:000832A8  _hb_rddReleaseCurrentArea
 0001:00083184  _hb_rddSelectFirstAvailable
 0001:00083D38  _hb_rddSelectWorkAreaAlias
 0001:000836F8  _hb_rddSelectWorkAreaNumber
 0001:00083C58  _hb_rddSelectWorkAreaSymbol
 0001:000835E8  _hb_rddSetNetErr
 0001:00082B2C  _hb_rddShutDown
 0001:00084914  _hb_rddTransRecords
 0001:0008352C  _hb_rddUnLockAll
 0001:00083788  _hb_rddVerifyAliasName
 0001:00083300  _hb_rddWaInit
 0001:00083384  _hb_rddWaShutDown
 0001:000478FC  _hb_rdd_wacore_Lock
 0001:00047914  _hb_rdd_wacore_LockDestroy
 0001:0004790C  _hb_rdd_wacore_LockInit
 0001:00047904  _hb_rdd_wacore_Unlock
 0001:000478F4  _hb_rdd_wacore_hb_atomic_inc
 0001:0004792C  _hb_rdd_wacore_rddChangeSetWorkareasShared
 0001:000478EC  _hb_rdd_wacore_rddWaInit
 0001:0004791C  _hb_rdd_wacore_rddWaShutDown
 0001:0005F72C  _hb_regex
 0001:0005F590  _hb_regexCompile
 0001:0005F6A4  _hb_regexFree
 0001:0005F600  _hb_regexGet
 0001:0005F6D4  _hb_regexMatch
 0001:0005AAB0  _hb_releaseCPU
 0001:0001FA78  _hb_ret
 0001:0001FA98  _hb_reta
 0001:0001FAB0  _hb_retc
 0001:0003EAE4  _hb_retcAdopt
 0001:0003EC4C  _hb_retcStatic
 0001:0001FAC8  _hb_retc_null
 0001:0001FAD8  _hb_retclen
 0001:0003EB60  _hb_retclenAdopt
 0001:0003EBDC  _hb_retclenAdoptRaw
 0001:0003EC98  _hb_retclenStatic
 0001:0001FB24  _hb_retd
 0001:0001FB74  _hb_retdl
 0001:0001FAF4  _hb_retds
 0001:0001FB44  _hb_retdt
 0001:0001FB8C  _hb_retdtd
 0001:0001FBA4  _hb_retdtl
 0001:0001FB0C  _hb_retdts
 0001:0001FBC0  _hb_retl
 0001:0001FBE4  _hb_retnd
 0001:0001FC4C  _hb_retndlen
 0001:0001FBFC  _hb_retni
 0001:0001FC6C  _hb_retnilen
 0001:0001FCD4  _hb_retnint
 0001:0001FCEC  _hb_retnintlen
 0001:0001FC14  _hb_retnl
 0001:0001FC2C  _hb_retnlen
 0001:0002085C  _hb_retnll
 0001:0001FC88  _hb_retnllen
 0001:00020874  _hb_retnlllen
 0001:00020890  _hb_retns
 0001:0001FCA4  _hb_retptr
 0001:0001FCBC  _hb_retptrGC
 0001:0001D870  _hb_s_hb_exc
 0001:0005F3B0  _hb_secondsCPU
 0001:00055358  _hb_serviceExit
 0001:000478BC  _hb_service_ConsoleHandlerRoutineDestroyStack
 0001:000478C4  _hb_service_ConsoleHandlerRoutineInit
 0001:000478B4  _hb_service_hbstartservice
 0001:000478D8  _hb_service_signalHandlerQuit
 0001:000478C8  _hb_service_threadCancel
 0001:00045884  _hb_setClone
 0001:00047440  _hb_setGetAltFile
 0001:00047418  _hb_setGetAltHan
 0001:00047438  _hb_setGetAlternate
 0001:00047738  _hb_setGetAppendError
 0001:00047448  _hb_setGetAutOpen
 0001:00047450  _hb_setGetAutOrder
 0001:00047458  _hb_setGetAutoShare
 0001:00047790  _hb_setGetBackGroundTick
 0001:00047770  _hb_setGetBackgroundTasks
 0001:00047460  _hb_setGetBell
 0001:00046FE4  _hb_setGetCPtr
 0001:00047468  _hb_setGetCancel
 0001:00047420  _hb_setGetCentury
 0001:00047470  _hb_setGetColor
 0001:00047478  _hb_setGetConfirm
 0001:00047480  _hb_setGetConsole
 0001:000475D8  _hb_setGetDBFLockScheme
 0001:00047488  _hb_setGetDateFormat
 0001:00047498  _hb_setGetDebug
 0001:000474A0  _hb_setGetDecimals
 0001:000475F0  _hb_setGetDefExtension
 0001:000474A8  _hb_setGetDefault
 0001:000474B0  _hb_setGetDeleted
 0001:000474B8  _hb_setGetDelimChars
 0001:000474C0  _hb_setGetDelimiters
 0001:000474C8  _hb_setGetDevice
 0001:000475B8  _hb_setGetDirCase
 0001:000475C0  _hb_setGetDirSeparator
 0001:000474D0  _hb_setGetEOF
 0001:000475F8  _hb_setGetEOL
 0001:000474D8  _hb_setGetEpoch
 0001:00047740  _hb_setGetErrorLog
 0001:00047760  _hb_setGetErrorLoop
 0001:000474E0  _hb_setGetEscape
 0001:000474E8  _hb_setGetEventMask
 0001:000474F0  _hb_setGetExact
 0001:000474F8  _hb_setGetExclusive
 0001:00047500  _hb_setGetExit
 0001:00047508  _hb_setGetExtra
 0001:00047510  _hb_setGetExtraFile
 0001:00047428  _hb_setGetExtraHan
 0001:000475B0  _hb_setGetFileCase
 0001:00047410  _hb_setGetFirstSetPath
 0001:00047518  _hb_setGetFixed
 0001:000475E8  _hb_setGetForceOpt
 0001:000475E0  _hb_setGetHardCommit
 0001:00047520  _hb_setGetIdleRepeat
 0001:00047528  _hb_setGetInsert
 0001:00047530  _hb_setGetIntensity
 0001:00046D0C  _hb_setGetL
 0001:00047548  _hb_setGetMBlockSize
 0001:00047550  _hb_setGetMCenter
 0001:00047560  _hb_setGetMFileExt
 0001:00047540  _hb_setGetMargin
 0001:00047558  _hb_setGetMessage
 0001:000471E0  _hb_setGetNI
 0001:00047400  _hb_setGetNL
 0001:00047608  _hb_setGetOSCODEPAGE
 0001:00047568  _hb_setGetOptimize
 0001:00047768  _hb_setGetOutputSafety
 0001:00047538  _hb_setGetPath
 0001:00047578  _hb_setGetPrintFile
 0001:00047430  _hb_setGetPrintHan
 0001:00047570  _hb_setGetPrinter
 0001:00047788  _hb_setGetPrinterJob
 0001:00047580  _hb_setGetScoreBoard
 0001:00047588  _hb_setGetScrollBreak
 0001:00047590  _hb_setGetSoftSeek
 0001:00047598  _hb_setGetStrictRead
 0001:00047490  _hb_setGetTimeFormat
 0001:00047748  _hb_setGetTrace
 0001:00047750  _hb_setGetTraceFile
 0001:00047758  _hb_setGetTraceStack
 0001:00047600  _hb_setGetTrimFileName
 0001:000475A0  _hb_setGetTypeAhead
 0001:000475A8  _hb_setGetUnique
 0001:000475C8  _hb_setGetVideoMode
 0001:00047780  _hb_setGetWinHan
 0001:00047778  _hb_setGetWinPrinter
 0001:00047798  _hb_setGetWorkareasShared
 0001:000475D0  _hb_setGetWrap
 0001:00045348  _hb_setInitialize
 0001:00045A1C  _hb_setListenerAdd
 0001:00045A90  _hb_setListenerNotify
 0001:00045AC0  _hb_setListenerRemove
 0001:000456AC  _hb_setRelease
 0001:0004323C  _hb_setSetCentury
 0001:00045CAC  _hb_setSetItem
 0001:00046C64  _hb_setSetItem2
 0001:000431A4  _hb_set_SetPrinterStart
 0001:000431F0  _hb_set_SetPrinterStop
 0001:00073DFC  _hb_setenv
 0001:00060860  _hb_setkeyExit
 0001:00060858  _hb_setkeyInit
 0001:000775B0  _hb_snprintf
 0001:0006118C  _hb_spCreate
 0001:000611E0  _hb_spCreateEx
 0001:00060F3C  _hb_spFile
 0001:00061040  _hb_spFileExists
 0001:00061144  _hb_spOpen
 0001:0001D9A0  _hb_stackAllocItem
 0001:0001DD90  _hb_stackBaseItem
 0001:0001DC30  _hb_stackBaseOffset
 0001:0001DC48  _hb_stackBaseProcOffset
 0001:0001DBF4  _hb_stackClearPrivateBases
 0001:0001DDAC  _hb_stackDateBuffer
 0001:0001D928  _hb_stackDec
 0001:0001D950  _hb_stackDecrease
 0001:0001E11C  _hb_stackDispCall
 0001:0001DE4C  _hb_stackDispLocal
 0001:0001D7D8  _hb_stackFree
 0001:0001DE28  _hb_stackGetActionRequest
 0001:0001DDB4  _hb_stackGetBase
 0001:0001DCB4  _hb_stackGetStaticsBase
 0001:0001DC9C  _hb_stackIOErrors
 0001:0001D868  _hb_stackId
 0001:0001DA00  _hb_stackIncrease
 0001:0001D7A8  _hb_stackInit
 0001:0001DCD4  _hb_stackItem
 0001:0001DCCC  _hb_stackItemBasePtr
 0001:0001DD2C  _hb_stackItemFromBase
 0001:0001DD00  _hb_stackItemFromTop
 0001:0001DD58  _hb_stackLocalVariable
 0001:0001DAB8  _hb_stackNewFrame
 0001:0001DB20  _hb_stackOldFrame
 0001:0001D880  _hb_stackPop
 0001:0001D8D0  _hb_stackPopReturn
 0001:0001D984  _hb_stackPush
 0001:0001D9C4  _hb_stackPushReturn
 0001:0001DCA4  _hb_stackRDD
 0001:0001DCAC  _hb_stackRDDTLS
 0001:0001DA94  _hb_stackRemove
 0001:0001DDA4  _hb_stackReturnItem
 0003:0000060C  _hb_stackST
 0001:0001DD98  _hb_stackSelfItem
 0001:0001DE34  _hb_stackSetActionRequest
 0001:0001DCBC  _hb_stackSetStaticsBase
 0001:0001D878  _hb_stackSetStruct
 0001:0001DD88  _hb_stackTopItem
 0001:0001DC18  _hb_stackTopOffset
 0001:0001DC94  _hb_stackTotalItems
 0001:0001D718  _hb_stack_init
 0001:000479C4  _hb_stack_lock
 0002:00010ED8  _hb_stack_ptr
 0002:00010EDC  _hb_stack_ready
 0001:000479C8  _hb_stack_unlock
 0001:0001FD08  _hb_stor
 0001:0001FD64  _hb_storc
 0001:0001FDF4  _hb_storclen
 0001:0001FE8C  _hb_storclenAdopt
 0001:00020220  _hb_stord
 0001:00020064  _hb_stordl
 0001:0001FF44  _hb_stords
 0001:000202C4  _hb_stordt
 0001:000200F4  _hb_stordtd
 0001:00020188  _hb_stordtl
 0001:0001FFD4  _hb_stordts
 0001:0002038C  _hb_storl
 0001:000205FC  _hb_stornd
 0001:00020438  _hb_storni
 0001:00020558  _hb_stornint
 0001:000204C8  _hb_stornl
 0001:00020720  _hb_stornll
 0001:0002094C  _hb_storns
 0001:00020690  _hb_storptr
 0001:0007448C  _hb_strAt
 0001:00075AAC  _hb_strAtI
 0001:000618F4  _hb_strEmpty
 0001:0006571C  _hb_strLTrim
 0001:00061478  _hb_strLower
 0001:000614E0  _hb_strLowerCopy
 0001:00061CDC  _hb_strMatchCaseWildExact
 0001:00061EB4  _hb_strMatchFile
 0001:0006192C  _hb_strMatchRegExp
 0001:00061974  _hb_strMatchWild
 0001:00061B1C  _hb_strMatchWildExact
 0001:00065748  _hb_strRTrimLen
 0001:000757B4  _hb_strRemEscSeq
 0001:000750F0  _hb_strToNum
 0001:000615F8  _hb_strUpper
 0001:0006156C  _hb_strUpperCopy
 0001:00075144  _hb_strVal
 0001:00075188  _hb_strValInt
 0001:00074544  _hb_strdup
 0001:000745E0  _hb_strduptrim
 0001:00075A48  _hb_strerror
 0001:00074660  _hb_stricmp
 0001:00075940  _hb_stripOutComments
 0001:00074630  _hb_strlentrim
 0001:00074514  _hb_strlow
 0001:0007511C  _hb_strnToNum
 0001:00075620  _hb_strncat
 0001:000755F4  _hb_strncpy
 0001:0007565C  _hb_strncpyLower
 0001:00075758  _hb_strncpyTrim
 0001:000756A0  _hb_strncpyUpper
 0001:000756E4  _hb_strncpyUpperTrim
 0001:00074574  _hb_strndup
 0001:0007472C  _hb_strnicmp
 0001:000745BC  _hb_strnlen
 0001:00075A58  _hb_strtohex
 0001:000744E4  _hb_strupr
 0001:000B4678  _hb_sxDeCrypt
 0001:000B48F8  _hb_sxDtoP
 0001:000B45D0  _hb_sxEnCrypt
 0001:000B4950  _hb_sxPtoD
 0002:0001146C  _hb_symEval
 0001:0001AE1C  _hb_symbolNew
 0001:000746C4  _hb_symcmp
 0002:00037008  _hb_szAscii
 0001:00084398  _hb_tblStructure
 0001:000479DC  _hb_threadLock
 0001:000479EC  _hb_threadLockDestroy
 0001:000479D4  _hb_threadLockInit
 0001:000477A0  _hb_threadSleep
 0001:000479E4  _hb_threadUnLock
 0001:0007C00C  _hb_timeDecStr
 0001:0007BC28  _hb_timeDecode
 0001:0007BCC4  _hb_timeDecodeSec
 0001:0007BF74  _hb_timeEncStr
 0001:0007BB90  _hb_timeEncode
 0001:0007BB10  _hb_timeEncodeSec
 0001:0007B14C  _hb_timeFormat
 0001:0007B7B8  _hb_timeStampDecode
 0001:0007B754  _hb_timeStampEncode
 0001:0007C2C8  _hb_timeStampGet
 0001:0007C274  _hb_timeStampGetLocal
 0001:0007B84C  _hb_timeStampStr
 0001:0007C170  _hb_timeStampUnpackDT
 0001:0007BD10  _hb_timeStrGet
 0002:000376C8  _hb_tr_file_
 0001:00077610  _hb_tr_level
 0002:000376D0  _hb_tr_level_
 0002:000376CC  _hb_tr_line_
 0001:00077704  _hb_tr_trace
 0001:000638CC  _hb_traceExit
 0001:0006386C  _hb_traceInit
 0001:000775F0  _hb_tracelevel
 0001:000775D0  _hb_tracestate
 0002:00012F2C  _hb_uniTbl_437
 0001:000750C4  _hb_valStrnToNum
 0001:00077CC8  _hb_verBuildInfo
 0001:000777F8  _hb_verCPU
 0001:00077B7C  _hb_verCompiler
 0001:00047F98  _hb_verCvsChangeLogID
 0001:00047F88  _hb_verCvsID
 0001:00047FA0  _hb_verCvsLastEntry
 0001:00047FA8  _hb_verFlagsC
 0001:00047FB0  _hb_verFlagsL
 0001:00047FB8  _hb_verFlagsPRG
 0001:00077C58  _hb_verHarbour
 0001:00077864  _hb_verHostBitWidth
 0001:0007784C  _hb_verHostCPU
 0001:00077C88  _hb_verPCode
 0001:00077884  _hb_verPlatform
 0001:0007787C  _hb_verPlatformMacro
 0001:00047F90  _hb_verSVNDateID
 0001:00028FC8  _hb_vmAtExit
 0001:00028FA0  _hb_vmAtInit
 0001:00038000  _hb_vmBeginSymbolGroup
 0001:0003573C  _hb_vmDestroyBlockOrMacro
 0001:00034ADC  _hb_vmDo
 0001:00038918  _hb_vmDoExitFunctions
 0001:0003561C  _hb_vmEvalBlock
 0001:00035694  _hb_vmEvalBlockOrMacro
 0001:00035644  _hb_vmEvalBlockV
 0001:000297F0  _hb_vmExecute
 0001:00038168  _hb_vmExitSymbolGroup
 0001:000388B0  _hb_vmExplicitStartup
 0001:00038A50  _hb_vmFindModule
 0001:00038A6C  _hb_vmFindModuleByName
 0001:00037E58  _hb_vmFindModuleSymbols
 0001:00038B00  _hb_vmForceLink
 0001:00037FAC  _hb_vmFreeSymbols
 0001:00035764  _hb_vmFunction
 0001:00037E2C  _hb_vmGetRealFuncSym
 0001:00029214  _hb_vmInit
 0001:00038018  _hb_vmInitSymbolGroup
 0001:00038F30  _hb_vmIsGlobalRef
 0001:00038DF8  _hb_vmIsLocalRef
 0001:00029044  _hb_vmIsMt
 0001:00038EB4  _hb_vmIsStaticRef
 0001:00038898  _hb_vmLastModule
 0001:00029048  _hb_vmLock
 0001:000347A0  _hb_vmOperatorCall
 0001:0003485C  _hb_vmOperatorCallUnary
 0001:00037604  _hb_vmPopState
 0001:0003882C  _hb_vmProcessExeUsesDllSymbols
 0001:000387BC  _hb_vmProcessPrgDllSymbols
 0001:000386F0  _hb_vmProcessSymbols
 0001:00038758  _hb_vmProcessSysDllSymbols
 0001:000368F4  _hb_vmPush
 0001:00038F50  _hb_vmPushBaseArray
 0001:00036E44  _hb_vmPushDate
 0001:00036E7C  _hb_vmPushDateTime
 0001:00036CF8  _hb_vmPushDouble
 0001:00036F7C  _hb_vmPushDynSym
 0001:00036F90  _hb_vmPushEvalSym
 0001:00036B5C  _hb_vmPushInteger
 0001:00038FC4  _hb_vmPushItemRef
 0001:00036994  _hb_vmPushLogical
 0001:00036BF0  _hb_vmPushLong
 0001:00036968  _hb_vmPushNil
 0001:00036AC0  _hb_vmPushNumInt
 0001:000369F0  _hb_vmPushNumType
 0001:000369D4  _hb_vmPushNumber
 0001:00036EB8  _hb_vmPushPointer
 0001:0003C244  _hb_vmPushSize
 0001:0003692C  _hb_vmPushState
 0001:00036EF0  _hb_vmPushString
 0001:00036F28  _hb_vmPushSymbol
 0001:00029530  _hb_vmQuit
 0001:00038EC0  _hb_vmRegisterGlobals
 0001:00038218  _hb_vmRegisterSymbols
 0001:000294AC  _hb_vmReleaseLocalSymbols
 0001:00038DE0  _hb_vmRequest
 0001:00038B5C  _hb_vmRequestBreak
 0001:00038BB0  _hb_vmRequestCancel
 0001:0003C01C  _hb_vmRequestDebug
 0001:00038B4C  _hb_vmRequestEndProc
 0001:00038CA0  _hb_vmRequestQuery
 0001:00038B3C  _hb_vmRequestQuit
 0001:00038CAC  _hb_vmRequestReenter
 0001:00038DD0  _hb_vmRequestReset
 0001:00038D00  _hb_vmRequestRestore
 0001:00034D60  _hb_vmSend
 0001:000491B8  _hb_vmSymbolInit_RT
 0001:00029144  _hb_vmSymbolResolveDeferred
 0001:00038890  _hb_vmSymbols
 0001:0002904C  _hb_vmUnlock
 0002:000114A8  _hb_vm_BreakBlock
 0002:00013A3C  _hb_vm_bCollectGarbage
 0002:0001149C  _hb_vm_bQuitRequest
 0002:000114A4  _hb_vm_iTry
 0002:000114A0  _hb_vm_sNull
 0001:00076808  _hb_vsnprintf
 0001:0007C444  _hb_wcntomb
 0001:0007C3B4  _hb_wctomb
 0001:0007C490  _hb_wctombget
 0001:00047A34  _hb_winmainArgGet
 0001:00047A08  _hb_winmainArgInit
 0001:00047A6C  _hb_winmainGetInstance
 0001:000067C0  _hb_wvt_DrawImage
 0001:00005E54  _hb_wvt_GetStringAttrib
 0001:00005EE4  _hb_wvt_PutStringAttrib
 0001:00006334  _hb_wvt_gtDestroyPicture
 0001:00005E3C  _hb_wvt_gtGetWVT
 0001:00006350  _hb_wvt_gtGetXYFromColRow
 0001:00006040  _hb_wvt_gtLoadPicture
 0001:00005F6C  _hb_wvt_gtLoadPictureFromResource
 0001:000060E4  _hb_wvt_gtRenderPicture
 0001:00024914  _hb_xRefCount
 0001:000248E8  _hb_xRefDec
 0001:000248FC  _hb_xRefFree
 0001:000248DC  _hb_xRefInc
 0001:00024920  _hb_xRefResize
 0001:000247B0  _hb_xalloc
 0001:000249B0  _hb_xautorelease
 0001:000249C4  _hb_xexit
 0001:000248B0  _hb_xfree
 0001:000247E8  _hb_xgrab
 0001:000249C0  _hb_xinit
 0001:000249C8  _hb_xquery
 0001:00024838  _hb_xrealloc
 0001:000249B8  _hb_xsize
 0001:000747A4  _hb_xstrcat
 0001:000747E8  _hb_xstrcpy
 0001:0003A6F8  _hb_xvmAddInt
 0001:0003A5C0  _hb_xvmAnd
 0001:0003ADB8  _hb_xvmArrayDim
 0001:0003ADC8  _hb_xvmArrayGen
 0001:0003B470  _hb_xvmArrayItemPop
 0001:0003B414  _hb_xvmArrayItemPush
 0001:0003B438  _hb_xvmArrayPop
 0001:0003B454  _hb_xvmArrayPopPlus
 0001:0003B3E4  _hb_xvmArrayPush
 0001:0003B3FC  _hb_xvmArrayPushRef
 0001:00039944  _hb_xvmBaseLine
 0001:000398D0  _hb_xvmBeginFinally
 0001:0003AB18  _hb_xvmBitAnd
 0001:0003AB30  _hb_xvmBitOr
 0001:0003AB60  _hb_xvmBitShiftL
 0001:0003AB78  _hb_xvmBitShiftR
 0001:0003AB48  _hb_xvmBitXor
 0001:000399A4  _hb_xvmClassSetModule
 0001:0003AB00  _hb_xvmDec
 0001:0003C00C  _hb_xvmDivert
 0001:0003AAB8  _hb_xvmDivide
 0001:0003A908  _hb_xvmDivideByInt
 0001:00039D74  _hb_xvmDo
 0001:0003A640  _hb_xvmDuplTwo
 0001:0003A638  _hb_xvmDuplicate
 0001:0003BE64  _hb_xvmEndEnumerate
 0001:000398EC  _hb_xvmEndFinally
 0001:0003BAA8  _hb_xvmEndWithObject
 0001:0003BAE4  _hb_xvmEnumIndex
 0001:0003BCE0  _hb_xvmEnumerate
 0001:0003A59C  _hb_xvmEqual
 0001:000395D0  _hb_xvmExitProc
 0001:0003BB40  _hb_xvmForEach
 0001:0003A648  _hb_xvmForTest
 0001:00039D4C  _hb_xvmFrame
 0001:0003A660  _hb_xvmFuncPtr
 0001:00039D98  _hb_xvmFunction
 0001:0003A6B0  _hb_xvmGreater
 0001:0003A6C8  _hb_xvmGreaterEqual
 0001:0003ADE0  _hb_xvmHashGen
 0001:00039A38  _hb_xvmIVarRef
 0001:0003AAE8  _hb_xvmInc
 0001:0003A6E0  _hb_xvmInstring
 0001:0003AB90  _hb_xvmLeft
 0001:0003A680  _hb_xvmLess
 0001:0003A698  _hb_xvmLessEqual
 0001:0003ACB0  _hb_xvmLike
 0001:00039974  _hb_xvmLineOffset
 0001:0003A500  _hb_xvmLocalAdd
 0001:0003A4CC  _hb_xvmLocalAddInt
 0001:0003B4C4  _hb_xvmLocalName
 0001:0003B82C  _hb_xvmLocalSetInt
 0001:0003B8B0  _hb_xvmLocalSetStr
 0001:0003BF3C  _hb_xvmLocalSetStringHidden
 0001:0003B504  _hb_xvmMacroList
 0001:0003B51C  _hb_xvmMacroListEnd
 0001:0003B784  _hb_xvmMacroPop
 0001:0003B7B4  _hb_xvmMacroPopAliased
 0001:0003B538  _hb_xvmMacroPush
 0001:0003B754  _hb_xvmMacroPushAliased
 0001:0003B6A8  _hb_xvmMacroPushArg
 0001:0003B590  _hb_xvmMacroPushIndex
 0001:0003B6F4  _hb_xvmMacroPushList
 0001:0003B724  _hb_xvmMacroPushPare
 0001:0003B7E4  _hb_xvmMacroSymbol
 0001:0003B808  _hb_xvmMacroText
 0001:0003AD34  _hb_xvmMatch
 0001:0003A798  _hb_xvmMinus
 0001:0003B4F4  _hb_xvmModuleName
 0001:0003AAD0  _hb_xvmModulus
 0001:0003A8F0  _hb_xvmMult
 0001:0003A7B0  _hb_xvmMultByInt
 0001:0003A608  _hb_xvmNegate
 0001:0003A5F0  _hb_xvmNot
 0001:0003A668  _hb_xvmNotEqual
 0001:0003A5D8  _hb_xvmOr
 0001:00039F3C  _hb_xvmParameter
 0001:0003A728  _hb_xvmPlus
 0001:0003A1EC  _hb_xvmPopAlias
 0001:0003A484  _hb_xvmPopAliasedField
 0001:0003A4A8  _hb_xvmPopAliasedVar
 0001:0003A2FC  _hb_xvmPopField
 0001:0003A018  _hb_xvmPopGlobal
 0001:00039F7C  _hb_xvmPopLocal
 0001:0003A1C8  _hb_xvmPopLogical
 0001:0003A408  _hb_xvmPopMemvar
 0001:00039FAC  _hb_xvmPopStatic
 0001:0003A10C  _hb_xvmPopVariable
 0001:0003A620  _hb_xvmPower
 0001:0003A29C  _hb_xvmPushAlias
 0001:0003A2B4  _hb_xvmPushAliasedField
 0001:0003A2D8  _hb_xvmPushAliasedVar
 0001:0003A1A0  _hb_xvmPushBlock
 0001:0003A188  _hb_xvmPushBlockShort
 0001:0003B494  _hb_xvmPushDouble
 0001:0003A254  _hb_xvmPushField
 0001:00039FBC  _hb_xvmPushGlobal
 0001:00039FD4  _hb_xvmPushGlobalByRef
 0001:00039F5C  _hb_xvmPushLocal
 0001:00039F6C  _hb_xvmPushLocalByRef
 0001:0003B4B0  _hb_xvmPushLongLong
 0001:0003B568  _hb_xvmPushMacroRef
 0001:0003A378  _hb_xvmPushMemvar
 0001:0003A3C0  _hb_xvmPushMemvarByRef
 0001:0003A1B8  _hb_xvmPushSelf
 0001:00039F8C  _hb_xvmPushStatic
 0001:00039F9C  _hb_xvmPushStaticByRef
 0001:0003BFE0  _hb_xvmPushStringHidden
 0001:0003A0E8  _hb_xvmPushVariable
 0001:0003B9E0  _hb_xvmPushWith
 0001:00039ED0  _hb_xvmRetValue
 0001:0003AC5C  _hb_xvmRight
 0001:00039D64  _hb_xvmSFrame
 0001:00039E00  _hb_xvmSend
 0001:00039E68  _hb_xvmSendWith
 0001:000395E8  _hb_xvmSeqBegin
 0001:00039668  _hb_xvmSeqEnd
 0001:0003971C  _hb_xvmSeqRecover
 0001:0003991C  _hb_xvmSetLine
 0001:0003B4DC  _hb_xvmStaticName
 0001:00039F24  _hb_xvmStatics
 0001:0003A23C  _hb_xvmSwapAlias
 0001:0003B93C  _hb_xvmSwitchCase
 0001:00039784  _hb_xvmTryBegin
 0001:000397A4  _hb_xvmTryEnd
 0001:000397D8  _hb_xvmTryEndFin
 0001:0003989C  _hb_xvmTryRecover
 0001:0003BA08  _hb_xvmWithObject
 0001:00024634  _independent_calloc
 0001:0002465C  _independent_comalloc
 0001:000B6B64  _internal_memmove
 0001:000B948C  _isalnum
 0001:000B94B8  _isalpha
 0001:000B94A4  _isascii
 0001:000B94D0  _isblank
 0001:000B94E4  _iscntrl
 0001:000B94F8  _isdigit
 0001:000B950C  _isgraph
 0001:000B9524  _islower
 0001:000B9538  _isprint
 0001:000B9550  _ispunct
 0001:000B9564  _isspace
 0001:000B9578  _isupper
 0001:000B95A4  _iswalnum
 0001:000B95D0  _iswalpha
 0001:000B95BC  _iswascii
 0001:000B95E8  _iswblank
 0001:000B95FC  _iswcntrl
 0001:000B9610  _iswdigit
 0001:000B9624  _iswgraph
 0001:000B963C  _iswlower
 0001:000B9650  _iswprint
 0001:000B966C  _iswpunct
 0001:000B9680  _iswspace
 0001:000B9694  _iswupper
 0001:000B96A8  _iswxdigit
 0001:000B958C  _isxdigit
 0001:000BAC78  _itoa
 0001:000BA708  _ldiv
 0001:000BAB78  _log
 0001:0000DB48  _lpwAlign
 0001:00024720  _mallinfo
 0001:000230B4  _malloc
 0001:000B4D50  _malloc
 0001:000246CC  _malloc_footprint
 0001:000246DC  _malloc_footprint_limit
 0001:000246D4  _malloc_max_footprint
 0001:000246F0  _malloc_set_footprint_limit
 0001:00024754  _malloc_stats
 0001:00024698  _malloc_trim
 0001:00024778  _malloc_usable_size
 0001:00024760  _mallopt
 0001:000B99C8  _mblen
 0001:000B9D24  _mbstowcs
 0001:000B9A44  _mbtowc
 0001:000B9B18  _mbtowc_cp
 0001:00024520  _memalign
 0001:000B6A88  _memchr
 0001:000B6AE0  _memcmp
 0001:000B6B4C  _memcpy
 0001:000B6C65  _memmove
 0001:000B6D17  _memset
 0001:000BAD38  _modf
 0001:000BAD68  _modfl
 0001:0000DB5C  _nCopyAnsiToWideChar
 0002:00011498  _pHVMFuncService
 0003:0000E8E0  _pVCL_add_EH
 0003:0000E8E4  _pVCL_clear_EH
 0002:0003BA14  _pcre_callout
 0001:000A7034  _pcre_compile
 0001:000A7058  _pcre_compile2
 0001:000B2474  _pcre_exec
 0002:0003BA08  _pcre_free
 0001:000B3238  _pcre_fullinfo
 0002:0003BA04  _pcre_malloc
 0002:0003BA10  _pcre_stack_free
 0002:0003BA0C  _pcre_stack_malloc
 0001:000B3D44  _pcre_version
 0001:00024548  _posix_memalign
 0001:000BAD98  _pow
 0001:000B864C  _printf
 0001:000245F8  _pvalloc
 0001:000BCEE8  _qsort
 0001:000BE014  _raise
 0003:0000E8EC  _raiseExceptObject
 0001:000BAFF4  _rand
 0001:00024414  _realloc
 0001:000244D0  _realloc_in_place
 0001:000B4230  _regcomp
 0001:000B4170  _regerror
 0001:000B42E8  _regexec
 0001:000B421C  _regfree
 0001:000B9410  _remove
 0002:0001212C  _s_WinMainParam
 0001:000B8670  _setmode
 0001:000B86E0  _setvbuf
 0001:000BDFB4  _signal
 0001:000B8758  _sprintf
 0001:000BC090  _sqrt
 0001:000BAFCC  _srand
 0001:000B6D30  _strcat
 0001:000B6D90  _strchr
 0001:000B6814  _strdup
 0001:000B68D8  _strerror
 0001:000B6DE0  _strlen
 0001:000B6E3C  _strncat
 0001:000B6EB8  _strncmp
 0001:000B68EC  _strncpy
 0001:000B693C  _strpbrk
 0001:000B696C  _strrchr
 0001:000B6998  _strstr
 0001:000BE8D4  _time
 0001:000BE8CC  _tzset
 0001:000BACA8  _ultoa
 0001:000245C4  _valloc
 0001:000B88C8  _vfprintf
 0001:000B8780  _vsprintf
 0001:000B69F8  _wcscpy
 0001:000B6A38  _wcslen
 0001:000B9E98  _wcstombs
 0001:000B9C40  _wctomb
 0001:000B9CB8  _wctomb_cp
 0001:00024BAC  _win32munmap
 0001:000B6FD1  _wmemset
 0001:0000E9BC  _wvt_Array2Point
 0001:0000E8C8  _wvt_Array2Rect
 0001:0000EA60  _wvt_Array2Size
 0001:0000EA04  _wvt_Point2Array
 0001:0000EB8C  _wvt_Point2ArrayEx
 0001:0000E92C  _wvt_Rect2Array
 0001:0000EB04  _wvt_Rect2ArrayEx
 0001:0000EAA8  _wvt_Size2Array
 0001:0000EBE0  _wvt_Size2ArrayEx
 0001:00073698  _yy_bytes_buffer
 0003:00002E80  _yyin
 0003:00002E74  _yyleng
 0002:000362E4  _yytext
 0001:00006390  hb_wvt_gtDlgProcMLess
 0001:00006594  hb_wvt_gtDlgProcModal
 0001:000BF58F  invokeHnd()
 0001:000BF574  jump()
 0001:000B4A18  operator delete(void *)
 0001:000B49F0  operator delete[](void *)
 0001:000551F8  s_ConsoleHandlerRoutine
 0001:000B4BC0  std::bad_cast::~bad_cast()
 0001:000C11C0  std::bad_exception::bad_exception()
 0001:000C12B4  std::bad_exception::bad_exception(std::bad_exception&)
 0001:000C11FC  std::bad_exception::~bad_exception()
 0001:000BF1D8  std::bad_typeid::~bad_typeid()
 0001:000B4B70  std::exception::exception()
 0001:000B4AC0  std::exception::what() const
 0001:000B4A80  std::exception::~exception()
 0001:000B4A50  std::terminate()
 0001:000B4A68  std::unexpected()

 Address Publics by Value

 0001:00000168  C1_0
 0001:00000168  __acrtused
 0001:000001CB  __GetExceptDLLinfo
 0001:000001D0  __isDLL
 0001:000001D8  __getHInstance
 0001:000002B2  ___System__GetTls
 0001:000002B2  Sysinit::__linkproc__ __fastcall GetTls()
 0001:000002C4  __dbk_fcall_wrapper
 0001:000002CC  C2_0
 0001:000002CC  C2_3
 0001:00000314  _HB_FUN_WVTDIALOG
 0001:00000434  _HB_FUN_WVTOBJECT
 0001:000004C4  _HB_FUN_WVTBROWSE
 0001:00000614  _HB_FUN_WVTSTATUSBAR
 0001:000006EC  _HB_FUN_WVTPANEL
 0001:00000734  _HB_FUN_WVTLABEL
 0001:00000824  _HB_FUN_WVTTOOLBAR
 0001:000008E4  _HB_FUN_WVTTOOLBUTTON
 0001:000009BC  _HB_FUN_WVTIMAGE
 0001:00000A1C  _HB_FUN_WVTSTATIC
 0001:00000AAC  _HB_FUN_WVTPUSHBUTTON
 0001:00000B3C  _HB_FUN_WVTGETS
 0001:00000C74  _HB_FUN_WVTSCROLLBAR
 0001:00000D64  _HB_FUN_WVTBANNER
 0001:00000E54  _HB_FUN_WVTTEXTBOX
 0001:00000F14  _HB_FUN_WVTPROGRESSBAR
 0001:00000FA4  _HB_FUN_WVTMENU
 0001:000010C4  _HB_FUN_WVTCONSOLE
 0001:00001124  _HB_FUN_TBROWSEWVG
 0001:0000116C  C27_0
 0001:00005750  _HB_FUN_HB_GT_WVG
 0001:00005754  _HB_FUN_HB_GT_WVG_DEFAULT
 0001:00005758  C27_3
 0001:00005E3C  _hb_wvt_gtGetWVT
 0001:00005E50  _HB_FUN_WVT_CORE
 0001:00005E50  C29_0
 0001:00005E54  _hb_wvt_GetStringAttrib
 0001:00005EE4  _hb_wvt_PutStringAttrib
 0001:00005F6C  _hb_wvt_gtLoadPictureFromResource
 0001:00006040  _hb_wvt_gtLoadPicture
 0001:000060E4  _hb_wvt_gtRenderPicture
 0001:00006334  _hb_wvt_gtDestroyPicture
 0001:00006350  _hb_wvt_gtGetXYFromColRow
 0001:00006390  hb_wvt_gtDlgProcMLess
 0001:00006594  hb_wvt_gtDlgProcModal
 0001:000067C0  _hb_wvt_DrawImage
 0001:00007260  _HB_FUN_WVT_SETPEN
 0001:00007354  _HB_FUN_WVT_SETBRUSH
 0001:00007470  _HB_FUN_WVT_DRAWBOXGET
 0001:00007544  _HB_FUN_WVT_DRAWBOXRAISED
 0001:0000761C  _HB_FUN_WVT_DRAWBOXRECESSED
 0001:000076F4  _HB_FUN_WVT_DRAWBOXGROUP
 0001:000077C0  _HB_FUN_WVT_DRAWBOXGROUPRAISED
 0001:0000788C  _HB_FUN_WVT_DRAWIMAGE
 0001:000079E0  _HB_FUN_WVT_DRAWLABEL
 0001:00007E1C  _HB_FUN_WVT_DRAWOUTLINE
 0001:00007FC8  _HB_FUN_WVT_DRAWLINE
 0001:00008748  _HB_FUN_WVT_DRAWELLIPSE
 0001:0000886C  _HB_FUN_WVT_DRAWRECTANGLE
 0001:00008990  _HB_FUN_WVT_DRAWROUNDRECT
 0001:00008B38  _HB_FUN_WVT_DRAWFOCUSRECT
 0001:00008C5C  _HB_FUN_WVT_DRAWCOLORRECT
 0001:00008DA8  _HB_FUN_WVT_DRAWGRIDHORZ
 0001:00008EBC  _HB_FUN_WVT_DRAWGRIDVERT
 0001:00008FE8  _HB_FUN_WVT_DRAWBUTTON
 0001:00009534  _HB_FUN_WVT_DRAWSTATUSBAR
 0001:00009820  _HB_FUN_WVT_DRAWPICTURE
 0001:00009938  _HB_FUN_WVT_DRAWLABELEX
 0001:00009B10  _HB_FUN_WVT_DRAWLINEEX
 0001:0000A17C  _HB_FUN_WVT_DRAWOUTLINEEX
 0001:0000A274  _HB_FUN_WVT_DRAWLABELOBJ
 0001:0000A514  _HB_FUN_WVT_DRAWTOOLBUTTONSTATE
 0001:0000A678  _HB_FUN_WVT_DRAWSCROLLBUTTON
 0001:0000AA54  _HB_FUN_WVT_DRAWSCROLLTHUMBVERT
 0001:0000AC98  _HB_FUN_WVT_DRAWSCROLLTHUMBHORZ
 0001:0000AEE8  _HB_FUN_WVT_DRAWSHADEDRECT
 0001:0000B0F0  _HB_FUN_WVT_DRAWTEXTBOX
 0001:0000B364  _HB_FUN_WVT_DRAWPROGRESSBAR
 0001:0000B698  _HB_FUN_WVT_CREATEFONT
 0001:0000B928  _HB_FUN_WVT_LOADPICTURE
 0001:0000B994  _HB_FUN_WVT_LOADPICTUREFROMRESOURCE
 0001:0000BA0C  _HB_FUN_WVT_LOADFONT
 0001:0000BCA0  _HB_FUN_WVT_LOADPEN
 0001:0000BD98  _HB_FUN_WVT_SAVESCREEN
 0001:0000BF00  _HB_FUN_WVT_RESTSCREEN
 0001:0000C0D0  _HB_FUN_WVT_UTILS
 0001:0000C0D0  C31_0
 0001:0000C0D4  _HB_FUN_WVT_CHOOSEFONT
 0001:0000C440  _HB_FUN_WVT_CHOOSECOLOR
 0001:0000C548  _HB_FUN_WVT_MESSAGEBOX
 0001:0000C5B8  _HB_FUN_WVT_SETTOOLTIPACTIVE
 0001:0000C618  _HB_FUN_WVT_SETTOOLTIP
 0001:0000C720  _HB_FUN_WVT_SETTOOLTIPTEXT
 0001:0000C78C  _HB_FUN_WVT_SETTOOLTIPMARGIN
 0001:0000C7F4  _HB_FUN_WVT_SETTOOLTIPWIDTH
 0001:0000C854  _HB_FUN_WVT_SETTOOLTIPBKCOLOR
 0001:0000C8B4  _HB_FUN_WVT_SETTOOLTIPTEXTCOLOR
 0001:0000C914  _HB_FUN_WVT_GETTOOLTIPWIDTH
 0001:0000C944  _HB_FUN_WVT_GETTOOLTIPBKCOLOR
 0001:0000C974  _HB_FUN_WVT_GETTOOLTIPTEXTCOLOR
 0001:0000C9A4  _HB_FUN_WVT_SETGUI
 0001:0000C9F4  _HB_FUN_WVT_SETMOUSEPOS
 0001:0000CA90  _HB_FUN_WVT_GETPAINTRECT
 0001:0000CAF8  _HB_FUN_WVT_SETPOINTER
 0001:0000CC70  _HB_FUN_WVT_SETMOUSEMOVE
 0001:0000CCBC  _HB_FUN_WVT_GETXYFROMROWCOL
 0001:0000CD28  _HB_FUN_WVT_GETFONTINFO
 0001:0000CDC4  _HB_FUN_WVT_SETMENU
 0001:0000CEE8  _HB_FUN_WVT_SETPOPUPMENU
 0001:0000CF1C  _HB_FUN_WVT_CREATEMENU
 0001:0000CF34  _HB_FUN_WVT_CREATEPOPUPMENU
 0001:0000CF4C  _HB_FUN_WVT_APPENDMENU
 0001:0000D008  _HB_FUN_WVT_DELETEMENU
 0001:0000D048  _HB_FUN_WVT_DESTROYMENU
 0001:0000D074  _HB_FUN_WVT_ENABLEMENUITEM
 0001:0000D0A4  _HB_FUN_WVT_GETLASTMENUEVENT
 0001:0000D0C4  _HB_FUN_WVT_SETLASTMENUEVENT
 0001:0000D104  _HB_FUN_WVT_SETMENUKEYEVENT
 0001:0000D144  _HB_FUN_WVT_DRAWMENUBAR
 0001:0000D158  _HB_FUN_WVT_ENABLESHORTCUTS
 0001:0000D1A8  _HB_FUN_WVT_INVALIDATERECT
 0001:0000D254  _HB_FUN_WVT_ISLBUTTONPRESSED
 0001:0000D27C  _HB_FUN_WVT_CLIENTTOSCREEN
 0001:0000D2FC  _HB_FUN_WVT_GETCURSORPOS
 0001:0000D350  _HB_FUN_WVT_TRACKPOPUPMENU
 0001:0000D3B0  _HB_FUN_WVT_GETMENU
 0001:0000D3D8  _HB_FUN_WVT_CREATEDIALOGDYNAMIC
 0001:0000D62C  _HB_FUN_WVT_CREATEDIALOGMODAL
 0001:0000D7C8  _HB_FUN_WVT__MAKEDLGTEMPLATE
 0001:0000DB48  _lpwAlign
 0001:0000DB5C  _nCopyAnsiToWideChar
 0001:0000DB7C  _HB_FUN_WVT_LBADDSTRING
 0001:0000DBB0  _HB_FUN_WVT_LBGETCOUNT
 0001:0000DBE8  _HB_FUN_WVT_LBDELETESTRING
 0001:0000DC18  _HB_FUN_WVT_LBSETCURSEL
 0001:0000DC48  _HB_FUN_WVT_CBADDSTRING
 0001:0000DC7C  _HB_FUN_WVT_CBSETCURSEL
 0001:0000DCAC  _HB_FUN_WVT_DLGSETICON
 0001:0000DD40  _HB_FUN_WIN_SENDMESSAGE
 0001:0000DE20  _HB_FUN_WIN_SENDDLGITEMMESSAGE
 0001:0000DF00  _HB_FUN_WIN_SETTIMER
 0001:0000DF40  _HB_FUN_WIN_SETFOCUS
 0001:0000DF50  _HB_FUN_WIN_SETTEXTCOLOR
 0001:0000DF78  _HB_FUN_WIN_SETBKCOLOR
 0001:0000DFA0  _HB_FUN_WIN_SETBKMODE
 0001:0000DFC8  _HB_FUN_WIN_GETSTOCKOBJECT
 0001:0000DFE8  _HB_FUN_WIN_DELETEOBJECT
 0001:0000E014  _HB_FUN_WIN_SELECTOBJECT
 0001:0000E03C  _HB_FUN_WIN_LOWORD
 0001:0000E05C  _HB_FUN_WIN_HIWORD
 0001:0000E080  _HB_FUN_WIN_MULDIV
 0001:0000E0B0  _HB_FUN_WIN_GETDIALOGBASEUNITS
 0001:0000E0C8  _HB_FUN_WIN_SETMENU
 0001:0000E0E0  _HB_FUN_WIN_SETDLGITEMTEXT
 0001:0000E108  _HB_FUN_WIN_GETDLGITEMTEXT
 0001:0000E17C  _HB_FUN_WIN_CHECKDLGBUTTON
 0001:0000E1D4  _HB_FUN_WIN_ISDLGBUTTONCHECKED
 0001:0000E1FC  _HB_FUN_WIN_CHECKRADIOBUTTON
 0001:0000E244  _HB_FUN_WIN_GETDLGITEM
 0001:0000E26C  _HB_FUN_WIN_MESSAGEBOX
 0001:0000E2D8  _HB_FUN_WIN_INVALIDATERECT
 0001:0000E2EC  _HB_FUN_WIN_LOADICON
 0001:0000E348  _HB_FUN_WIN_LOADIMAGE
 0001:0000E3BC  _HB_FUN_WIN_GETCLIENTRECT
 0001:0000E438  _HB_FUN_WIN_DRAWIMAGE
 0001:0000E494  _HB_FUN_WIN_GETDC
 0001:0000E4B4  _HB_FUN_WIN_RELEASEDC
 0001:0000E4E8  _HB_FUN_WIN_RECTANGLE
 0001:0000E51C  _HB_FUN_WIN_CREATEBRUSH
 0001:0000E5CC  _HB_FUN_WIN_DRAWTEXT
 0001:0000E670  _HB_FUN_WIN_GETWINDOWRECT
 0001:0000E6D8  _HB_FUN_WIN_MOVEWINDOW
 0001:0000E714  _HB_FUN_WIN_SETPARENT
 0001:0000E73C  _HB_FUN_WIN_SETWINDOWLONG
 0001:0000E76C  _HB_FUN_WIN_ISWINDOW
 0001:0000E798  _HB_FUN_WVT_GETFONTHANDLE
 0001:0000E7D0  _HB_FUN_WIN_CLIENTTOSCREEN
 0001:0000E84C  _HB_FUN_WIN_SCREENTOCLIENT
 0001:0000E8C8  _wvt_Array2Rect
 0001:0000E92C  _wvt_Rect2Array
 0001:0000E9BC  _wvt_Array2Point
 0001:0000EA04  _wvt_Point2Array
 0001:0000EA60  _wvt_Array2Size
 0001:0000EAA8  _wvt_Size2Array
 0001:0000EB04  _wvt_Rect2ArrayEx
 0001:0000EB8C  _wvt_Point2ArrayEx
 0001:0000EBE0  _wvt_Size2ArrayEx
 0001:0000EC34  _HB_FUN_WVT__GETOPENFILENAME
 0001:0000EE58  _HB_FUN_WVT__GETSAVEFILENAME
 0001:0000F01C  _HB_FUN_WIN_AND
 0001:0000F044  _HB_FUN_WIN_OR
 0001:0000F06C  _HB_FUN_WIN_NOT
 0001:0000F088  _HB_FUN_WIN_TRACKPOPUPMENU
 0001:0000F148  _HB_FUN_WIN_CHOOSECOLOR
 0001:0000F270  _HB_FUN_WIN_FINDWINDOW
 0001:0000F2AC  C35_3
 0001:0000F2AC  C35_0
 0001:0000F2E4  _HB_FUN_WVTPAINTOBJECTS
 0001:0000F2F8  _HB_FUN_WVTSETPAINT
 0001:0000F30C  _HB_FUN_SETPAINT
 0001:0000F320  _HB_FUN_GETPAINT
 0001:0000F334  _HB_FUN_DELPAINT
 0001:0000F348  _HB_FUN_PURGEPAINT
 0001:0000F35C  _HB_FUN_INSERTPAINT
 0001:0000F370  _HB_FUN_WVT_MAKEDLGTEMPLATE
 0001:0000F384  _HB_FUN_WVT_ADDDLGITEM
 0001:0000F398  _HB_FUN_WVT_CREATEDIALOG
 0001:0000F3AC  _HB_FUN_WVT_DIALOGBOX
 0001:0000F3C0  _HB_FUN_WVT_GETOPENFILENAME
 0001:0000F3D4  _HB_FUN_WVT_GETSAVEFILENAME
 0001:0000F3E8  _HB_FUN_WVT_SETTITLE
 0001:0000F3FC  _HB_FUN_WVT_GETTITLE
 0001:0000F410  _HB_FUN_WVT_SETICON
 0001:0000F424  _HB_FUN_WVT_SETFONT
 0001:0000F438  _HB_FUN_WVT_SETCODEPAGE
 0001:0000F44C  _HB_FUN_WVT_GETPALETTE
 0001:0000F460  _HB_FUN_WVT_SETPALETTE
 0001:0000F474  _HB_FUN_WVT_GETRGBCOLOR
 0001:0000F488  _HB_FUN_WVT_SETALTF4CLOSE
 0001:0000F49C  _HB_FUN_WVT_GETSCREENWIDTH
 0001:0000F4B0  _HB_FUN_WVT_GETSCREENHEIGHT
 0001:0000F4C4  _HB_FUN_WVT_GETWINDOWHANDLE
 0001:0000F4D8  _HB_FUN_WVT_CENTERWINDOW
 0001:0000F4EC  _HB_FUN_WVT_WINDOWCENTRE
 0001:0000F500  _HB_FUN_WVT_PROCESSMESSAGES
 0001:0000F514  _HB_FUN_WVT_KEYBOARD
 0001:0000F528  _HB_FUN_WVT_GETCLIPBOARD
 0001:0000F53C  _HB_FUN_WVT_SETCLIPBOARD
 0001:0000F550  _HB_FUN_WVT_PASTEFROMCLIPBOARD
 0001:0000F564  _HB_FUN_WVT_RESETWINDOW
 0001:0000F578  _HB_FUN_WVT_SETTIMER
 0001:0000F58C  _HB_FUN_WVT_KILLTIMER
 0001:0000F5A0  _HB_FUN_WVT_SETONTOP
 0001:0000F5B4  _HB_FUN_WVT_SETASNORMAL
 0001:0000F5C8  _HB_FUN_WVT_MINIMIZE
 0001:0000F5DC  _HB_FUN_WVT_MAXIMIZE
 0001:0000F5F0  _HB_FUN_WVT_HIDE
 0001:0000F604  _HB_FUN_WVT_SHOW
 0001:0000F618  _HB_FUN_WVT_SETWINDOWPOS
 0001:0000F62C  _HB_FUN_WVT_SHOWWINDOW
 0001:0000F640  _HB_FUN_WVT_UPDATE
 0001:0000F668  C41_0
 0001:0000F668  _hb_arrayNew
 0001:0000F6FC  _hb_arraySize
 0001:0000F8DC  _hb_arrayLen
 0001:0000F8F8  _hb_arrayIsObject
 0001:0000F91C  _hb_arrayId
 0001:0000F934  _hb_arrayAdd
 0001:0000F998  _hb_arrayAddForward
 0001:0000F9FC  _hb_arrayDel
 0001:0000FAA0  _hb_arrayIns
 0001:0000FB24  _hb_arraySet
 0001:0000FB7C  _hb_arraySetForward
 0001:0000FBD4  _hb_arrayGet
 0001:0000FC3C  _hb_arrayGetForward
 0001:0000FCA4  _hb_arrayGetByRef
 0001:0000FD68  _hb_arrayGetDS
 0001:0000FDB4  _hb_arrayGetDTS
 0001:0000FE00  _hb_arrayGetDL
 0001:0000FE40  _hb_arrayGetT
 0001:0000FE80  _hb_arrayGetDTsec
 0001:0000FEC0  _hb_arrayGetDTD
 0001:0000FF00  _hb_arrayGetItemPtr
 0001:0000FF34  _hb_arrayGetL
 0001:0000FF6C  _hb_arrayGetNI
 0001:0000FFA4  _hb_arrayGetNL
 0001:0000FFDC  _hb_arrayGetNLL
 0001:00010018  _hb_arrayGetNInt
 0001:00010054  _hb_arrayGetND
 0001:00010098  _hb_arrayCopyC
 0001:000100F0  _hb_arrayGetC
 0001:00010140  _hb_arrayGetCPtr
 0001:00010184  _hb_arrayGetCLen
 0001:000101C8  _hb_arrayGetPtr
 0001:00010200  _hb_arrayGetType
 0001:00010238  _hb_arraySetDS
 0001:0001027C  _hb_arraySetDL
 0001:000102C0  _hb_arraySetTDT
 0001:00010308  _hb_arraySetL
 0001:0001034C  _hb_arraySetNI
 0001:00010390  _hb_arraySetNL
 0001:000103D4  _hb_arraySetNLL
 0001:0001041C  _hb_arraySetNInt
 0001:00010464  _hb_arraySetND
 0001:000104AC  _hb_arraySetC
 0001:000104F0  _hb_arraySetCL
 0001:00010538  _hb_arraySetCPtr
 0001:00010580  _hb_arraySetPtr
 0001:000105C4  _hb_arraySetPtrGC
 0001:00010608  _hb_arrayLast
 0001:00010674  _hb_arrayFill
 0001:000106E4  _hb_arrayScan
 0001:00010B60  _hb_arrayEval
 0001:00010DB4  _hb_arrayReleaseBase
 0001:00010E5C  _hb_arrayRelease
 0001:00010E90  _hb_arrayCopy
 0001:00010F90  _hb_arrayClone2
 0001:00010FB0  _hb_arrayCloneEx
 0001:00011108  _hb_arrayClone
 0001:00011138  _hb_arrayFromStack
 0001:00011190  _hb_arrayFromParams
 0001:00011238  _hb_arrayBaseParams
 0001:00011248  _hb_arraySelfParams
 0001:000112A0  _hb_arrayReleaseGarbage
 0001:00011318  _hb_arrayMode
 0001:0001131C  _hb_arrayGetNS
 0001:00011354  _hb_arraySetNS
 0001:0001139C  C43_0
 0001:000113F4  _HB_FUN_ARRAY
 0001:00011480  _HB_FUN_AADD
 0001:00011594  _HB_FUN_HB_ARRAYID
 0001:000115BC  _HB_FUN_HB_THISARRAY
 0001:00011608  _HB_FUN_ASIZE
 0001:000116CC  _HB_FUN_ASIZEALLOC
 0001:00011734  _HB_FUN_ALENALLOC
 0001:0001175C  _HB_FUN_ATAIL
 0001:00011780  _HB_FUN_AINS
 0001:00011858  _HB_FUN_HB_AINS
 0001:00011860  _HB_FUN_ADEL
 0001:00011918  _HB_FUN_AFILL
 0001:00011AD8  _HB_FUN_ASCAN
 0001:00011B90  _HB_FUN_AEVAL
 0001:00011CA0  _HB_FUN_ACOPY
 0001:00011D9C  _HB_FUN_ACLONE
 0001:00011DD8  _HB_FUN_HB_APARAMS
 0001:00011E2C  _HB_FUN_HB_AEXPRESSIONS
 0001:0001205C  _SizeOfCStructure
 0001:00012360  _HB_FUN_HB_SIZEOFCSTRUCTURE
 0001:000123DC  _ArrayToStructure
 0001:00013758  _HB_FUN_HB_ARRAYTOSTRUCTURE
 0001:000137F8  _StructureToArray
 0001:0001407C  _HB_FUN_HB_STRUCTURETOARRAY
 0001:00014164  _HB_FUN_RASCAN
 0001:00014568  _HB_FUN_ASPLICE
 0001:00014860  _HB_FUN_AREMOVE
 0001:00014868  _HB_FUN_AMERGE
 0001:0001498C  C45_0
 0001:00014F00  _hb_arraySort
 0001:00014F80  _HB_FUN_ASORT
 0001:00015014  C47_0
 0001:00015100  _hb_clsInit
 0001:00015208  _hb_clsDisableDestructors
 0001:00015210  _hb_clsDestructorsAllowed
 0001:00015218  _hb_clsClearAllClassDatas
 0001:00015244  _hb_clsClearAll
 0001:00015270  _hb_clsReleaseAll
 0001:000152F8  _hb_clsIsClassRef
 0001:000157F8  _hb_clsIsParent
 0001:0001586C  _hb_objGetClsName
 0001:0001597C  _hb_clsName
 0001:000159AC  _hb_objGetRealCls
 0001:00015A14  _hb_objGetRealClsName
 0001:00015AF8  _hb_objGetOpOver
 0001:00015B28  _hb_objGetClsSymbol
 0001:00015CC8  _hb_objGetMethod
 0001:00015D08  _hb_objGetMthd
 0001:00015F04  _hb_clsHasMsg
 0001:00015F6C  _hb_objGetpMthd
 0001:00015FB4  _hb_objGetpMethod
 0001:00015FE0  _hb_objHasMsg
 0001:00015FF8  _hb_objHasMessage
 0001:00017058  _HB_FUN___CLSADDMSG
 0001:00017244  ___cls_CntMethods
 0001:00017E5C  _HB_FUN___CLSNEW
 0001:00017F88  _hb_clsDeactiveClass
 0001:00017FE8  _HB_FUN___CLSISACTIVE
 0001:00018038  _HB_FUN___CLSACTIVE
 0001:000180A4  _HB_FUN___CLSSETMODULE
 0001:0001810C  _HB_FUN___CLSDELMSG
 0001:00018234  _HB_FUN___CLSINST
 0001:0001824C  _hb_clsInst
 0001:000185C8  _HB_FUN___CLSMODMSG
 0001:00018870  _HB_FUN___CLSMSGASSIGNED
 0001:00018904  _HB_FUN___OBJGETCLSNAME
 0001:00018928  _HB_FUN___CLSHASMSG
 0001:000189D0  _HB_FUN___OBJHASMSG
 0001:00018A54  _hb_objClone
 0001:00018B24  _HB_FUN___OBJCLONE
 0001:00018B6C  _hb_objSendMsg
 0001:00018BE4  _hb_objSendSymbol
 0001:00018C34  _hb_objSendMessage
 0001:00018C84  _HB_FUN___OBJSENDMSG
 0001:00018D2C  _HB_FUN___OBJSENDMSGCASE
 0001:00018DD4  _HB_FUN___CLSINSTSUPER
 0001:00018EF0  _HB_FUN___CLS_CNTCLSDATA
 0001:00018F3C  _HB_FUN___CLS_CNTSHRDATA
 0001:00018F74  _HB_FUN___CLS_CNTDATA
 0001:00018FB0  _HB_FUN___CLS_DECDATA
 0001:00018FEC  _HB_FUN___CLS_INCDATA
 0001:0001904C  _HB_FUN___CLASSNAME
 0001:00019098  _HB_FUN___CLASSSEL
 0001:00019120  _HB_FUN___GETMEMBERS
 0001:000192F8  _HB_FUN___GETMESSAGE
 0001:00019324  _HB_FUN___CLSPARENT
 0001:0001935C  _HB_FUN___SENDER
 0001:000193C8  _hb_objClassH
 0001:000194D0  _HB_FUN___CLASSH
 0001:000194F8  _HB_FUN___EVAL
 0001:00019AA0  _hb___msgGetClsData
 0001:00019AE4  _hb___msgSetClsData
 0001:00019B38  _hb___msgGetShrData
 0001:00019B80  _hb___msgSetShrData
 0001:00019BDC  _hb___msgGetData
 0001:00019C1C  _hb___msgSetData
 0001:00019CFC  _hb_clsClassesArray
 0001:00019D04  _hb_clsMaxClasses
 0001:00019D0C  _HB_FUN___GETMSGPRF
 0001:00019D38  _hb_mthAddTime
 0001:00019D40  _hb_clsFinalize
 0001:00019EDC  _HB_FUN___CLSGETPROPERTIES
 0001:00019F70  _HB_FUN___CLSGETPROPERTIESANDVALUES
 0001:0001A054  _HB_FUN___CLSGETIVARNAMESANDVALUES
 0001:0001A16C  _hb_clsSymbolFromFunction
 0001:0001A1BC  _HB_FUN_HB_OBJMSGPTR
 0001:0001A240  _hb_clsGetHandleFromName
 0001:0001A298  _HB_FUN___CLSGETHANDLEFROMNAME
 0001:0001A43C  _hb_clsSetModule
 0001:0001A470  _HB_FUN___SETCLASSSCOPE
 0001:0001A4B4  _hb_clsSetScope
 0001:0001A4C8  _HB_FUN___SETCLASSAUTOINIT
 0001:0001A5FC  _HB_FUN___CLSADDFRIEND
 0001:0001A620  _HB_FUN___CLSFRIENDLY
 0001:0001A708  _HB_FUN___CLSASSOCTYPE
 0001:0001A978  _HB_FUN___CLSCNTCLASSES
 0001:0001A990  _HB_FUN___CLSINSTNAME
 0001:0001AA40  _hb_clsCreate
 0001:0001AA60  _hb_clsAdd
 0001:0001AA90  _hb_clsAddData
 0001:0001AAC0  _hb_clsAssociate
 0001:0001AAD8  _hb_clsAddDataInit
 0001:0001AB08  _hb_codeblockNew
 0001:0001AB08  C51_0
 0001:0001AC28  _hb_codeblockMacroNew
 0001:0001AC88  _hb_codeblockDelete
 0001:0001AD0C  _hb_codeblockDeleteGarbage
 0001:0001AD84  _hb_codeblockGetVar
 0001:0001ADD0  _hb_codeblockGetRef
 0001:0001ADEC  C59_0
 0001:0001ADEC  _hb_dynsymLog
 0001:0001AE1C  _hb_symbolNew
 0001:0001AE74  _hb_dynsymNew
 0001:0001AF74  _hb_dynsymGet
 0001:0001B004  _hb_dynsymGetCase
 0001:0001B058  _hb_dynsymGetCaseWithNamespaces
 0001:0001B0B4  _hb_dynsymGetWithNamespaces
 0001:0001B110  _hb_dynsymFindName
 0001:0001B15C  _hb_dynsymFind
 0001:0001B22C  _hb_dynsymFindWithNamespaces
 0001:0001B294  _hb_dynsymFindNameWithNamespaces
 0001:0001B334  _hb_dynsymGetSymbol
 0001:0001B348  _hb_dynsymFindSymbol
 0001:0001B364  _hb_dynsymSymbol
 0001:0001B370  _hb_dynsymName
 0001:0001B380  _hb_dynsymIsFunction
 0001:0001B398  _hb_dynsymMemvarHandle
 0001:0001B3A4  _hb_dynsymAreaHandle
 0001:0001B3B0  _hb_dynsymSetAreaHandle
 0001:0001B3C0  _hb_dynsymEval
 0001:0001B3F8  _hb_dynsymRelease
 0001:0001B450  _hb_dynsymPos
 0001:0001B470  _hb_dynsymItems
 0001:0001B478  _hb_dynsymCount
 0001:0001B480  _HB_FUN___DYNSCOUNT
 0001:0001B494  _HB_FUN___DYNSGETNAME
 0001:0001B4CC  _HB_FUN___DYNSGETINDEX
 0001:0001B4FC  _HB_FUN___DYNSISFUN
 0001:0001B554  _HB_FUN___DYNSGETPRF
 0001:0001B580  C61_0
 0001:0001C184  _HB_FUN_ERRORNEW
 0001:0001C37C  _HB_FUN___ERRINHANDLER
 0001:0001C390  _HB_FUN_ERRORBLOCK
 0001:0001C3C4  _hb_errorBlock
 0001:0001C3F4  _hb_errorHandler
 0001:0001C414  _HB_FUN_DOSERROR
 0001:0001C448  _hb_errInit
 0001:0001C4A8  _hb_errExit
 0001:0001C4D0  _hb_errNew
 0001:0001C5FC  _hb_errLaunch
 0001:0001C828  _hb_errLaunchSubst
 0001:0001C9B8  _hb_errRelease
 0001:0001C9C8  _hb_errGetCargo
 0001:0001C9DC  _hb_errPutCargo
 0001:0001C9F8  _hb_errGetArgs
 0001:0001CA0C  _hb_errPutArgsArray
 0001:0001CA28  _hb_errGetDescription
 0001:0001CA3C  _hb_errPutDescription
 0001:0001CA58  _hb_errGetFileName
 0001:0001CA6C  _hb_errPutFileName
 0001:0001CA88  _hb_errGetGenCode
 0001:0001CA9C  _hb_errPutGenCode
 0001:0001CAB8  _hb_errGetOperation
 0001:0001CACC  _hb_errPutOperation
 0001:0001CB04  _hb_errGetOsCode
 0001:0001CB18  _hb_errPutOsCode
 0001:0001CB34  _hb_errGetSeverity
 0001:0001CB48  _hb_errPutSeverity
 0001:0001CB64  _hb_errGetSubCode
 0001:0001CB78  _hb_errPutSubCode
 0001:0001CB94  _hb_errGetSubSystem
 0001:0001CBA8  _hb_errPutSubSystem
 0001:0001CBC4  _hb_errGetProcName
 0001:0001CBD8  _hb_errPutProcName
 0001:0001CBF4  _hb_errGetProcLine
 0001:0001CC08  _hb_errPutProcLine
 0001:0001CC24  _hb_errGetThreadId
 0001:0001CC38  _hb_errPutThreadId
 0001:0001CC58  _hb_errGetRunningThreads
 0001:0001CC6C  _hb_errPutRunningThreads
 0001:0001CC88  _hb_errGetVmThreadId
 0001:0001CC9C  _hb_errPutVmThreadId
 0001:0001CCB8  _hb_errGetModuleName
 0001:0001CCCC  _hb_errPutModuleName
 0001:0001CCE8  _hb_errGetCallStack
 0001:0001CCFC  _hb_errPutCallStack
 0001:0001CD18  _hb_errGetTries
 0001:0001CD2C  _hb_errPutTries
 0001:0001CD48  _hb_errGetFlags
 0001:0001CD5C  _hb_errPutFlags
 0001:0001CDC8  _hb_errPutArgs
 0001:0001CE1C  _hb_errRT_New
 0001:0001CECC  _hb_errRT_New_Subst
 0001:0001CFAC  _hb_errRT_SubstParams
 0001:0001D010  _hb_errRT_FileError
 0001:0001D0A4  _HB_FUN___ERRRT_BASE
 0001:0001D0EC  _HB_FUN___ERRRT_SBASE
 0001:0001D134  _hb_errRT_BASE
 0001:0001D20C  _hb_errRT_BASE_Ext1
 0001:0001D2E8  _hb_errRT_BASE_Subst
 0001:0001D3C0  _hb_errRT_BASE_SubstR
 0001:0001D49C  _hb_errRT_TERM
 0001:0001D4E4  _hb_errRT_DBCMD
 0001:0001D534  _hb_errRT_DBCMD_Ext
 0001:0001D57C  _hb_errRT_TOOLS
 0001:0001D5C0  _hb_errInternal
 0001:0001D718  C63_0
 0001:0001D718  _hb_stack_init
 0001:0001D7A8  _hb_stackInit
 0001:0001D7D8  _hb_stackFree
 0001:0001D868  _hb_stackId
 0001:0001D870  _hb_s_hb_exc
 0001:0001D878  _hb_stackSetStruct
 0001:0001D880  _hb_stackPop
 0001:0001D8D0  _hb_stackPopReturn
 0001:0001D928  _hb_stackDec
 0001:0001D950  _hb_stackDecrease
 0001:0001D984  _hb_stackPush
 0001:0001D9A0  _hb_stackAllocItem
 0001:0001D9C4  _hb_stackPushReturn
 0001:0001DA00  _hb_stackIncrease
 0001:0001DA94  _hb_stackRemove
 0001:0001DAB8  _hb_stackNewFrame
 0001:0001DB20  _hb_stackOldFrame
 0001:0001DBF4  _hb_stackClearPrivateBases
 0001:0001DC18  _hb_stackTopOffset
 0001:0001DC30  _hb_stackBaseOffset
 0001:0001DC48  _hb_stackBaseProcOffset
 0001:0001DC94  _hb_stackTotalItems
 0001:0001DC9C  _hb_stackIOErrors
 0001:0001DCA4  _hb_stackRDD
 0001:0001DCAC  _hb_stackRDDTLS
 0001:0001DCB4  _hb_stackGetStaticsBase
 0001:0001DCBC  _hb_stackSetStaticsBase
 0001:0001DCCC  _hb_stackItemBasePtr
 0001:0001DCD4  _hb_stackItem
 0001:0001DD00  _hb_stackItemFromTop
 0001:0001DD2C  _hb_stackItemFromBase
 0001:0001DD58  _hb_stackLocalVariable
 0001:0001DD88  _hb_stackTopItem
 0001:0001DD90  _hb_stackBaseItem
 0001:0001DD98  _hb_stackSelfItem
 0001:0001DDA4  _hb_stackReturnItem
 0001:0001DDAC  _hb_stackDateBuffer
 0001:0001DDB4  _hb_stackGetBase
 0001:0001DE28  _hb_stackGetActionRequest
 0001:0001DE34  _hb_stackSetActionRequest
 0001:0001DE4C  _hb_stackDispLocal
 0001:0001E11C  _hb_stackDispCall
 0001:0001E224  _hb_evalNew
 0001:0001E224  C65_0
 0001:0001E254  _hb_evalPutParam
 0001:0001E288  _hb_evalLaunch
 0001:0001E35C  _hb_evalRelease
 0001:0001E3A8  _hb_itemDo
 0001:0001E4F8  _hb_itemDoC
 0001:0001E57C  _hb_itemDoCRef
 0001:0001E664  _hb_evalBlock0
 0001:0001E688  _hb_evalBlock1
 0001:0001E6B4  _hb_evalBlock
 0001:0001E6F4  _HB_FUN_HB_EXECFROMARRAY
 0001:0001EA54  _hb_execFromArray
 0001:0001EBC4  _HB_FUN_HB_EXEC
 0001:0001ECD8  _hb_param
 0001:0001ECD8  C69_0
 0001:0001ED54  _hb_paramError
 0001:0001ED78  _hb_extIsArray
 0001:0001EDC8  _hb_extIsObject
 0001:0001EE3C  _hb_parc
 0001:0001EEB0  _hb_parcx
 0001:0001EF28  _hb_parclen
 0001:0001EF9C  _hb_parcsiz
 0001:0001F018  _hb_pards
 0001:0001F0AC  _hb_pardts
 0001:0001F144  _hb_pardsbuff
 0001:0001F1D4  _hb_pardl
 0001:0001F250  _hb_pardtsbuff
 0001:0001F2E4  _hb_part
 0001:0001F360  _hb_pardtsec
 0001:0001F3DC  _hb_pardtd
 0001:0001F458  _hb_parl
 0001:0001F564  _hb_parnd
 0001:0001F630  _hb_parni
 0001:0001F6E8  _hb_parnl
 0001:0001F7A8  _hb_parnint
 0001:0001F874  _hb_parptr
 0001:0001F8E8  _hb_parptrGC
 0001:0001F9A0  _hb_parinfa
 0001:0001F9E0  _hb_parinfo
 0001:0001FA68  _hb_pcount
 0001:0001FA78  _hb_ret
 0001:0001FA98  _hb_reta
 0001:0001FAB0  _hb_retc
 0001:0001FAC8  _hb_retc_null
 0001:0001FAD8  _hb_retclen
 0001:0001FAF4  _hb_retds
 0001:0001FB0C  _hb_retdts
 0001:0001FB24  _hb_retd
 0001:0001FB44  _hb_retdt
 0001:0001FB74  _hb_retdl
 0001:0001FB8C  _hb_retdtd
 0001:0001FBA4  _hb_retdtl
 0001:0001FBC0  _hb_retl
 0001:0001FBE4  _hb_retnd
 0001:0001FBFC  _hb_retni
 0001:0001FC14  _hb_retnl
 0001:0001FC2C  _hb_retnlen
 0001:0001FC4C  _hb_retndlen
 0001:0001FC6C  _hb_retnilen
 0001:0001FC88  _hb_retnllen
 0001:0001FCA4  _hb_retptr
 0001:0001FCBC  _hb_retptrGC
 0001:0001FCD4  _hb_retnint
 0001:0001FCEC  _hb_retnintlen
 0001:0001FD08  _hb_stor
 0001:0001FD64  _hb_storc
 0001:0001FDF4  _hb_storclen
 0001:0001FE8C  _hb_storclenAdopt
 0001:0001FF44  _hb_stords
 0001:0001FFD4  _hb_stordts
 0001:00020064  _hb_stordl
 0001:000200F4  _hb_stordtd
 0001:00020188  _hb_stordtl
 0001:00020220  _hb_stord
 0001:000202C4  _hb_stordt
 0001:0002038C  _hb_storl
 0001:00020438  _hb_storni
 0001:000204C8  _hb_stornl
 0001:00020558  _hb_stornint
 0001:000205FC  _hb_stornd
 0001:00020690  _hb_storptr
 0001:00020720  _hb_stornll
 0001:000207B4  _hb_parnll
 0001:0002085C  _hb_retnll
 0001:00020874  _hb_retnlllen
 0001:00020890  _hb_retns
 0001:000208A8  _hb_parns
 0001:0002094C  _hb_storns
 0001:000209E8  _hb_partdt
 0001:00020A44  C71_0
 0001:000230B4  _malloc
 0001:000233F8  _free
 0001:00023BC0  _calloc
 0001:00024414  _realloc
 0001:000244D0  _realloc_in_place
 0001:00024520  _memalign
 0001:00024548  _posix_memalign
 0001:000245C4  _valloc
 0001:000245F8  _pvalloc
 0001:00024634  _independent_calloc
 0001:0002465C  _independent_comalloc
 0001:0002467C  _bulk_free
 0001:00024698  _malloc_trim
 0001:000246CC  _malloc_footprint
 0001:000246D4  _malloc_max_footprint
 0001:000246DC  _malloc_footprint_limit
 0001:000246F0  _malloc_set_footprint_limit
 0001:00024720  _mallinfo
 0001:00024754  _malloc_stats
 0001:00024760  _mallopt
 0001:00024778  _malloc_usable_size
 0001:000247B0  _hb_xalloc
 0001:000247E8  _hb_xgrab
 0001:00024838  _hb_xrealloc
 0001:000248B0  _hb_xfree
 0001:000248DC  _hb_xRefInc
 0001:000248E8  _hb_xRefDec
 0001:000248FC  _hb_xRefFree
 0001:00024914  _hb_xRefCount
 0001:00024920  _hb_xRefResize
 0001:000249B0  _hb_xautorelease
 0001:000249B8  _hb_xsize
 0001:000249C0  C71_3
 0001:000249C0  _hb_xinit
 0001:000249C4  _hb_xexit
 0001:000249C8  _hb_xquery
 0001:00024B88  _HB_FUN_MEMORY
 0001:00024BA8  _HB_FUN_HB_FM_NOSTAT
 0001:00024BAC  _win32munmap
 0001:00024C1C  C73_0
 0001:00024C74  _hb_gcAlloc
 0001:00024CD0  _hb_gcIncRef
 0001:00024CE0  _hb_gcDecRef
 0001:00024D34  _hb_gcFree
 0001:00024DB0  _hb_gcFunc
 0001:00024DBC  _hb_gcDummyMark
 0001:00024DCC  _hb_gcGripGet
 0001:00024E2C  _hb_gcGripDrop
 0001:00024E7C  _hb_gcLock
 0001:00024EC4  _hb_gcUnlock
 0001:00024F18  _hb_gcItemRef
 0001:000257C4  _hb_gcCollect
 0001:000257D0  _hb_gcCollectAll
 0001:00025980  _hb_gcReleaseAll
 0001:00025A4C  _hb_gcInit
 0001:00025A7C  _hb_gcSetCollecting
 0001:00025A90  _HB_FUN_HB_GCSTEP
 0001:00025A98  _HB_FUN_HB_GCALL
 0001:00025AA8  _HB_FUN_HB_GCALLOCATED
 0001:00025ABC  C75_0
 0001:00025E6C  _hb_hashNew
 0001:00025F28  _hb_hashAdd
 0001:000263FC  _hb_hashAddForward
 0001:000265F8  _hb_hashScan
 0001:00026694  _hb_hashRemove
 0001:000268AC  _hb_hashSet
 0001:00026954  _hb_hashSetForward
 0001:00026A04  _hb_hashGet
 0001:00026ACC  _hb_hashGetForward
 0001:00026B94  _hb_hashPreallocate
 0001:00026C34  _hb_hashClone
 0001:00026D54  _hb_hashMerge
 0001:00027144  _hb_hashSetAACompatibility
 0001:000271E4  _hb_hashReleaseBase
 0001:000272A0  _hb_hashRelease
 0001:00027310  _hb_hashReleaseGarbage
 0001:000273A0  _hb_hashGetKeys
 0001:00027484  _hb_hashGetValues
 0001:00027568  _hb_hashGetKeyAt
 0001:000275D4  _hb_hashGetValueAt
 0001:00027640  _HB_FUN_HASH
 0001:0002774C  _HB_FUN_HGETPOS
 0001:000277D8  _HB_FUN_HAAGETPOS
 0001:00027890  _HB_FUN_HHASKEY
 0001:00027918  _HB_FUN_HGET
 0001:000279D4  _HB_FUN_HSET
 0001:00027A54  _HB_FUN_HDEL
 0001:00027AF8  _HB_FUN_HGETKEYAT
 0001:00027BAC  _HB_FUN_HAAGETKEYAT
 0001:00027CA0  _HB_FUN_HGETVALUEAT
 0001:00027D54  _HB_FUN_HAAGETVALUEAT
 0001:00027E48  _HB_FUN_HSETVALUEAT
 0001:00027F18  _HB_FUN_HAASETVALUEAT
 0001:00028038  _HB_FUN_HGETPAIRAT
 0001:000281C8  _HB_FUN_HDELAT
 0001:0002826C  _HB_FUN_HAADELAT
 0001:00028350  _HB_FUN_HGETKEYS
 0001:000283AC  _HB_FUN_HGETVALUES
 0001:00028408  _HB_FUN_HGETVAAPOS
 0001:000284AC  _HB_FUN_HFILL
 0001:00028554  _HB_FUN_HSCAN
 0001:00028644  _HB_FUN_HEVAL
 0001:0002873C  _HB_FUN_HCLONE
 0001:00028794  _HB_FUN_HCOPY
 0001:00028890  _HB_FUN_HMERGE
 0001:00028920  _hb_hashSetCaseMatch
 0001:00028960  _HB_FUN_HSETCASEMATCH
 0001:000289D8  _HB_FUN_HGETCASEMATCH
 0001:00028A2C  _HB_FUN_HSETAUTOADD
 0001:00028A98  _HB_FUN_HGETAUTOADD
 0001:00028AEC  _HB_FUN_HSETPARTITION
 0001:00028C6C  _HB_FUN_HGETPARTITION
 0001:00028D34  _HB_FUN_HALLOCATE
 0001:00028D9C  _HB_FUN_HSETAACOMPATIBILITY
 0001:00028E24  _HB_FUN_HGETAACOMPATIBILITY
 0001:00028E78  _HB_FUN_HAAGETREALPOS
 0001:00028EF0  _hb_hashAAGetRealPos
 0001:00028F28  _hb_hashLen
 0001:00028F40  _hb_hashGetCompatibility
 0001:00028F64  _hb_hashId
 0001:00028F78  _HB_FUN_HB_HASHID
 0001:00028FA0  _hb_vmAtInit
 0001:00028FA0  C77_0
 0001:00028FC8  _hb_vmAtExit
 0001:00029044  _hb_vmIsMt
 0001:00029048  _hb_vmLock
 0001:0002904C  _hb_vmUnlock
 0001:00029144  _hb_vmSymbolResolveDeferred
 0001:00029214  _hb_vmInit
 0001:000294AC  _hb_vmReleaseLocalSymbols
 0001:00029530  _hb_vmQuit
 0001:000297F0  _hb_vmExecute
 0001:0002D830  _HB_FUN_HB_VMEXECUTE
 0001:000347A0  _hb_vmOperatorCall
 0001:0003485C  _hb_vmOperatorCallUnary
 0001:00034ADC  _hb_vmDo
 0001:00034D60  _hb_vmSend
 0001:0003561C  _hb_vmEvalBlock
 0001:00035644  _hb_vmEvalBlockV
 0001:00035694  _hb_vmEvalBlockOrMacro
 0001:0003573C  _hb_vmDestroyBlockOrMacro
 0001:00035764  _hb_vmFunction
 0001:000368F4  _hb_vmPush
 0001:0003692C  _hb_vmPushState
 0001:00036968  _hb_vmPushNil
 0001:00036994  _hb_vmPushLogical
 0001:000369D4  _hb_vmPushNumber
 0001:000369F0  _hb_vmPushNumType
 0001:00036AC0  _hb_vmPushNumInt
 0001:00036B5C  _hb_vmPushInteger
 0001:00036BF0  _hb_vmPushLong
 0001:00036CF8  _hb_vmPushDouble
 0001:00036E44  _hb_vmPushDate
 0001:00036E7C  _hb_vmPushDateTime
 0001:00036EB8  _hb_vmPushPointer
 0001:00036EF0  _hb_vmPushString
 0001:00036F28  _hb_vmPushSymbol
 0001:00036F7C  _hb_vmPushDynSym
 0001:00036F90  _hb_vmPushEvalSym
 0001:00037604  _hb_vmPopState
 0001:00037E2C  _hb_vmGetRealFuncSym
 0001:00037E58  _hb_vmFindModuleSymbols
 0001:00037FAC  _hb_vmFreeSymbols
 0001:00038000  _hb_vmBeginSymbolGroup
 0001:00038018  _hb_vmInitSymbolGroup
 0001:00038168  _hb_vmExitSymbolGroup
 0001:00038218  _hb_vmRegisterSymbols
 0001:000386F0  _hb_vmProcessSymbols
 0001:00038758  _hb_vmProcessSysDllSymbols
 0001:000387BC  _hb_vmProcessPrgDllSymbols
 0001:0003882C  _hb_vmProcessExeUsesDllSymbols
 0001:00038890  _hb_vmSymbols
 0001:00038898  _hb_vmLastModule
 0001:000388B0  _hb_vmExplicitStartup
 0001:00038918  _hb_vmDoExitFunctions
 0001:00038A50  _hb_vmFindModule
 0001:00038A6C  _hb_vmFindModuleByName
 0001:00038B00  _hb_vmForceLink
 0001:00038B08  _HB_FUN_ERRORLEVEL
 0001:00038B3C  _hb_vmRequestQuit
 0001:00038B4C  _hb_vmRequestEndProc
 0001:00038B5C  _hb_vmRequestBreak
 0001:00038BB0  _hb_vmRequestCancel
 0001:00038CA0  _hb_vmRequestQuery
 0001:00038CAC  _hb_vmRequestReenter
 0001:00038D00  _hb_vmRequestRestore
 0001:00038DD0  _hb_vmRequestReset
 0001:00038DE0  _hb_vmRequest
 0001:00038DF8  _hb_vmIsLocalRef
 0001:00038EB4  _hb_vmIsStaticRef
 0001:00038EC0  _hb_vmRegisterGlobals
 0001:00038F30  _hb_vmIsGlobalRef
 0001:00038F3C  _HB_FUN___SETPROFILER
 0001:00038F40  _HB_FUN___TRACEPRGCALLS
 0001:00038F50  _hb_vmPushBaseArray
 0001:00038FC4  _hb_vmPushItemRef
 0001:00039000  _HB_FUN_HB_FUNCPTR
 0001:0003907C  _HB_FUN_HB_QSELF
 0001:000390D8  _HB_FUN___OPCOUNT
 0001:000390EC  _HB_FUN___OPGETPRF
 0001:00039118  _HB_FUN_HB_SAVEBLOCK
 0001:00039228  _HB_FUN_HB_RESTOREBLOCK
 0001:000394F0  _HB_FUN_HB_NOMOUSE
 0001:000394F4  _HB_FUN_HB_NOSTARTUPWINDOW
 0001:000394F8  _HB_FUN_HB_RESETWITH
 0001:00039548  _HB_FUN_HB_WITHOBJECTCOUNTER
 0001:0003955C  _HB_FUN___TEXTINTO
 0001:0003958C  _HB_FUN_HB_MULTITHREAD
 0001:0003959C  _HB_FUN_HB_VMMODE
 0001:000395D0  _hb_xvmExitProc
 0001:000395E8  _hb_xvmSeqBegin
 0001:00039668  _hb_xvmSeqEnd
 0001:0003971C  _hb_xvmSeqRecover
 0001:00039784  _hb_xvmTryBegin
 0001:000397A4  _hb_xvmTryEnd
 0001:000397D8  _hb_xvmTryEndFin
 0001:0003989C  _hb_xvmTryRecover
 0001:000398D0  _hb_xvmBeginFinally
 0001:000398EC  _hb_xvmEndFinally
 0001:0003991C  _hb_xvmSetLine
 0001:00039944  _hb_xvmBaseLine
 0001:00039974  _hb_xvmLineOffset
 0001:000399A4  _hb_xvmClassSetModule
 0001:00039A38  _hb_xvmIVarRef
 0001:00039D4C  _hb_xvmFrame
 0001:00039D64  _hb_xvmSFrame
 0001:00039D74  _hb_xvmDo
 0001:00039D98  _hb_xvmFunction
 0001:00039E00  _hb_xvmSend
 0001:00039E68  _hb_xvmSendWith
 0001:00039ED0  _hb_xvmRetValue
 0001:00039F24  _hb_xvmStatics
 0001:00039F3C  _hb_xvmParameter
 0001:00039F5C  _hb_xvmPushLocal
 0001:00039F6C  _hb_xvmPushLocalByRef
 0001:00039F7C  _hb_xvmPopLocal
 0001:00039F8C  _hb_xvmPushStatic
 0001:00039F9C  _hb_xvmPushStaticByRef
 0001:00039FAC  _hb_xvmPopStatic
 0001:00039FBC  _hb_xvmPushGlobal
 0001:00039FD4  _hb_xvmPushGlobalByRef
 0001:0003A018  _hb_xvmPopGlobal
 0001:0003A0E8  _hb_xvmPushVariable
 0001:0003A10C  _hb_xvmPopVariable
 0001:0003A188  _hb_xvmPushBlockShort
 0001:0003A1A0  _hb_xvmPushBlock
 0001:0003A1B8  _hb_xvmPushSelf
 0001:0003A1C8  _hb_xvmPopLogical
 0001:0003A1EC  _hb_xvmPopAlias
 0001:0003A23C  _hb_xvmSwapAlias
 0001:0003A254  _hb_xvmPushField
 0001:0003A29C  _hb_xvmPushAlias
 0001:0003A2B4  _hb_xvmPushAliasedField
 0001:0003A2D8  _hb_xvmPushAliasedVar
 0001:0003A2FC  _hb_xvmPopField
 0001:0003A378  _hb_xvmPushMemvar
 0001:0003A3C0  _hb_xvmPushMemvarByRef
 0001:0003A408  _hb_xvmPopMemvar
 0001:0003A484  _hb_xvmPopAliasedField
 0001:0003A4A8  _hb_xvmPopAliasedVar
 0001:0003A4CC  _hb_xvmLocalAddInt
 0001:0003A500  _hb_xvmLocalAdd
 0001:0003A59C  _hb_xvmEqual
 0001:0003A5C0  _hb_xvmAnd
 0001:0003A5D8  _hb_xvmOr
 0001:0003A5F0  _hb_xvmNot
 0001:0003A608  _hb_xvmNegate
 0001:0003A620  _hb_xvmPower
 0001:0003A638  _hb_xvmDuplicate
 0001:0003A640  _hb_xvmDuplTwo
 0001:0003A648  _hb_xvmForTest
 0001:0003A660  _hb_xvmFuncPtr
 0001:0003A668  _hb_xvmNotEqual
 0001:0003A680  _hb_xvmLess
 0001:0003A698  _hb_xvmLessEqual
 0001:0003A6B0  _hb_xvmGreater
 0001:0003A6C8  _hb_xvmGreaterEqual
 0001:0003A6E0  _hb_xvmInstring
 0001:0003A6F8  _hb_xvmAddInt
 0001:0003A728  _hb_xvmPlus
 0001:0003A798  _hb_xvmMinus
 0001:0003A7B0  _hb_xvmMultByInt
 0001:0003A8F0  _hb_xvmMult
 0001:0003A908  _hb_xvmDivideByInt
 0001:0003AAB8  _hb_xvmDivide
 0001:0003AAD0  _hb_xvmModulus
 0001:0003AAE8  _hb_xvmInc
 0001:0003AB00  _hb_xvmDec
 0001:0003AB18  _hb_xvmBitAnd
 0001:0003AB30  _hb_xvmBitOr
 0001:0003AB48  _hb_xvmBitXor
 0001:0003AB60  _hb_xvmBitShiftL
 0001:0003AB78  _hb_xvmBitShiftR
 0001:0003AB90  _hb_xvmLeft
 0001:0003AC5C  _hb_xvmRight
 0001:0003ACB0  _hb_xvmLike
 0001:0003AD34  _hb_xvmMatch
 0001:0003ADB8  _hb_xvmArrayDim
 0001:0003ADC8  _hb_xvmArrayGen
 0001:0003ADE0  _hb_xvmHashGen
 0001:0003B3E4  _hb_xvmArrayPush
 0001:0003B3FC  _hb_xvmArrayPushRef
 0001:0003B414  _hb_xvmArrayItemPush
 0001:0003B438  _hb_xvmArrayPop
 0001:0003B454  _hb_xvmArrayPopPlus
 0001:0003B470  _hb_xvmArrayItemPop
 0001:0003B494  _hb_xvmPushDouble
 0001:0003B4B0  _hb_xvmPushLongLong
 0001:0003B4C4  _hb_xvmLocalName
 0001:0003B4DC  _hb_xvmStaticName
 0001:0003B4F4  _hb_xvmModuleName
 0001:0003B504  _hb_xvmMacroList
 0001:0003B51C  _hb_xvmMacroListEnd
 0001:0003B538  _hb_xvmMacroPush
 0001:0003B568  _hb_xvmPushMacroRef
 0001:0003B590  _hb_xvmMacroPushIndex
 0001:0003B6A8  _hb_xvmMacroPushArg
 0001:0003B6F4  _hb_xvmMacroPushList
 0001:0003B724  _hb_xvmMacroPushPare
 0001:0003B754  _hb_xvmMacroPushAliased
 0001:0003B784  _hb_xvmMacroPop
 0001:0003B7B4  _hb_xvmMacroPopAliased
 0001:0003B7E4  _hb_xvmMacroSymbol
 0001:0003B808  _hb_xvmMacroText
 0001:0003B82C  _hb_xvmLocalSetInt
 0001:0003B8B0  _hb_xvmLocalSetStr
 0001:0003B93C  _hb_xvmSwitchCase
 0001:0003B9E0  _hb_xvmPushWith
 0001:0003BA08  _hb_xvmWithObject
 0001:0003BAA8  _hb_xvmEndWithObject
 0001:0003BAE4  _hb_xvmEnumIndex
 0001:0003BB40  _hb_xvmForEach
 0001:0003BCE0  _hb_xvmEnumerate
 0001:0003BE64  _hb_xvmEndEnumerate
 0001:0003BF3C  _hb_xvmLocalSetStringHidden
 0001:0003BFE0  _hb_xvmPushStringHidden
 0001:0003C00C  _hb_xvmDivert
 0001:0003C01C  _hb_vmRequestDebug
 0001:0003C028  _hb_dbg_InvokeDebug
 0001:0003C03C  _hb_dbg_SetEntry
 0001:0003C050  _hb_dbg_vmVarSGet
 0001:0003C06C  _hb_dbg_ProcLevel
 0001:0003C074  _HB_FUN_HB_DBG_INVOKEDEBUG
 0001:0003C0C0  _HB_FUN_HB_DBG_VMVARSLIST
 0001:0003C0E4  _HB_FUN_HB_DBG_VMVARSLEN
 0001:0003C100  _HB_FUN_HB_DBG_VMVARSGET
 0001:0003C124  _HB_FUN_HB_DBG_VMVARSSET
 0001:0003C15C  _HB_FUN_HB_DBG_PROCLEVEL
 0001:0003C174  _hb_dbg_vmVarGCount
 0001:0003C180  _hb_dbg_vmVarGGet
 0001:0003C19C  _HB_FUN_HB_DBG_VMVARGLIST
 0001:0003C1C0  _HB_FUN_HB_DBG_VMVARGGET
 0001:0003C1E4  _HB_FUN_HB_DBG_VMVARGSET
 0001:0003C21C  _HB_FUN___VMVARGLIST
 0001:0003C224  _HB_FUN___VMVARSLIST
 0001:0003C22C  _HB_FUN___VMVARSLEN
 0001:0003C234  _HB_FUN___VMVARSGET
 0001:0003C23C  _HB_FUN___VMVARSSET
 0001:0003C244  _hb_vmPushSize
 0001:0003C254  C79_0
 0001:0003C254  _HB_FUN___QUIT
 0001:0003C284  C81_0
 0001:0003C284  _hb_itemapiCheck
 0001:0003C2B0  _hb_itemNew
 0001:0003C2C4  _hb_itemParam
 0001:0003C2E0  _hb_itemParamPtr
 0001:0003C2F8  _hb_itemPCount
 0001:0003C308  _hb_itemRelease
 0001:0003C328  _hb_itemArrayNew
 0001:0003C348  _hb_itemArrayGet
 0001:0003C374  _hb_itemArrayPut
 0001:0003C398  _hb_itemSetCMemo
 0001:0003C3B0  _hb_itemGetC
 0001:0003C3F4  _hb_itemGetCPtr
 0001:0003C410  _hb_itemGetCLen
 0001:0003C42C  _hb_itemCopyC
 0001:0003C468  _hb_itemFreeC
 0001:0003C484  _hb_itemGetDS
 0001:0003C4B4  _hb_itemGetDTS
 0001:0003C4E8  _hb_itemGetDL
 0001:0003C500  _hb_itemGetT
 0001:0003C518  _hb_itemGetTsec
 0001:0003C548  _hb_itemGetDTsec
 0001:0003C57C  _hb_itemGetDTD
 0001:0003C5B0  _hb_itemGetDTL
 0001:0003C5E4  _hb_itemGetD
 0001:0003C62C  _hb_itemGetDT
 0001:0003C6B4  _hb_itemGetL
 0001:0003C738  _hb_itemGetND
 0001:0003C7D4  _hb_itemGetNDDec
 0001:0003C898  _hb_itemGetNI
 0001:0003C908  _hb_itemGetNL
 0001:0003C978  _hb_itemGetPtr
 0001:0003C990  _hb_itemGetPtrGC
 0001:0003C9C0  _hb_itemGetSymbol
 0001:0003C9DC  _hb_itemPutDate
 0001:0003C9FC  _hb_itemPutDS
 0001:0003CA18  _hb_itemPutDTS
 0001:0003CA4C  _hb_itemPutD
 0001:0003CA74  _hb_itemPutDT
 0001:0003CAC4  _hb_itemPutTDT
 0001:0003CAE8  _hb_itemPutDL
 0001:0003CB00  _hb_itemPutDTL
 0001:0003CB30  _hb_itemPutDTsec
 0001:0003CB74  _hb_itemPutDTD
 0001:0003CBAC  _hb_itemPutL
 0001:0003CBC8  _hb_itemPutND
 0001:0003CBE4  _hb_itemPutNDDec
 0001:0003CC68  _hb_itemPutNI
 0001:0003CCA4  _hb_itemPutNL
 0001:0003CCE0  _hb_itemPutNLen
 0001:0003CDD8  _hb_itemPutNDLen
 0001:0003CE80  _hb_itemPutNILen
 0001:0003CECC  _hb_itemPutNLLen
 0001:0003CF18  _hb_itemPutSymbol
 0001:0003CF6C  _hb_itemGetNLen
 0001:0003CFD8  _hb_itemSize
 0001:0003D018  _hb_itemType
 0001:0003D02C  _hb_itemTypeStr
 0001:0003D1C4  _hb_itemUnRef
 0001:0003D1DC  _hb_itemUnRefOnce
 0001:0003D2D8  _hb_itemUnShareString
 0001:0003D354  _hb_itemUnShare
 0001:0003D378  _hb_itemGetWriteCL
 0001:0003D3BC  _hb_itemClone
 0001:0003D3F0  _hb_itemStrCmp
 0001:0003D51C  _hb_itemStrBuf
 0001:0003D9D0  _hb_itemStr
 0001:0003DA98  _hb_itemString
 0001:0003DCD4  _hb_itemPadConv
 0001:0003DD64  _hb_itemValToStr
 0001:0003DDA8  _hb_itemGetNLL
 0001:0003DE1C  _hb_itemPutNLL
 0001:0003DE78  _hb_itemPutNLLLen
 0001:0003DEE0  _hb_itemPutNInt
 0001:0003DF2C  _hb_itemPutNIntLen
 0001:0003DF80  _hb_itemGetNInt
 0001:0003DFF4  _hb_itemPutHBLong
 0001:0003E050  _hb_itemPutNumType
 0001:0003E128  _hb_itemPutNull
 0001:0003E138  _hb_itemPutNS
 0001:0003E16C  _hb_itemGetNS
 0001:0003E1B8  _hb_itemEqual
 0001:0003E3BC  _hb_itemPushForward
 0001:0003E3BC  C83_0
 0001:0003E3F0  _hb_itemForwardValue
 0001:0003E43C  _hb_itemReturn
 0001:0003E45C  _hb_itemReturnForward
 0001:0003E47C  _hb_itemReturnRelease
 0001:0003E4A0  _hb_itemReleaseString
 0001:0003E4EC  _hb_itemClear
 0001:0003E618  _hb_itemSwap
 0001:0003E650  _hb_itemCopy
 0001:0003E788  _hb_itemPutC
 0001:0003E7B0  _hb_itemPutCL
 0001:0003E944  _hb_itemPutCPtr
 0001:0003E978  _hb_itemPutCRaw
 0001:0003E9D4  _hb_itemPutCRawStatic
 0001:0003E9FC  _hb_itemPutCStatic
 0001:0003EA24  _hb_itemPutCLStatic
 0001:0003EA5C  _hb_itemPutPtr
 0001:0003EA7C  _hb_itemPutPtrGC
 0001:0003EAA8  _hb_itemPushStaticString
 0001:0003EAE4  _hb_retcAdopt
 0001:0003EB60  _hb_retclenAdopt
 0001:0003EBDC  _hb_retclenAdoptRaw
 0001:0003EC4C  _hb_retcStatic
 0001:0003EC98  _hb_retclenStatic
 0001:0003ECD4  _hb_itemParamId
 0001:0003ED14  C85_0
 0001:0003ED88  _hb_macroDelete
 0001:0003EEC8  _hb_macroRun
 0001:0003EFD8  _hb_macroIsIdent
 0001:0003F078  _hb_macroTextSubst
 0001:0003F29C  _hb_macroGetValue
 0001:0003F454  _hb_macroSetValue
 0001:0003F550  _hb_macroPopAliasedValue
 0001:0003F56C  _hb_macroPushAliasedValue
 0001:0003F7FC  _hb_macroExpandString
 0001:0003F828  _hb_macroCompile
 0001:0003F884  _HB_FUN_HB_MACROCOMPILE
 0001:0003F998  _hb_macroPushSymbol
 0001:0003FAE8  _hb_macroTextValue
 0001:0003FB28  _hb_macroGetType
 0001:0003FCC4  _hb_macroSetMacro
 0001:0003FCF0  _HB_FUN_HB_SETMACRO
 0001:0003FE78  _hb_compLocalVarGetPos
 0001:0003FED8  _hb_compGenJump
 0001:0003FF20  _hb_compGenJumpFalse
 0001:0003FF68  _hb_compGenJumpThere
 0001:0003FFAC  _hb_compGenJumpHere
 0001:0003FFC8  _hb_compGenJumpTrue
 0001:00040010  _hb_compMemvarGenPCode
 0001:00040064  _hb_compGenPushSymbol
 0001:00040170  _hb_compGenPushLong
 0001:00040298  _hb_compGenPushDate
 0001:00040304  _hb_compGenMessage
 0001:00040334  _hb_compGenMessageData
 0001:00040384  _hb_compGenPopVar
 0001:000403C4  _hb_compGenPopAliasedVar
 0001:000404BC  _hb_compGenPushVar
 0001:000404FC  _hb_compGenPushVarRef
 0001:00040540  _hb_compGenPushMemVarRef
 0001:00040558  _hb_compGenPushAliasedVar
 0001:00040668  _hb_compGenPushLogical
 0001:00040690  _hb_compGenPushDouble
 0001:000406CC  _hb_compGenPushFunCall
 0001:0004070C  _hb_compGenPushString
 0001:00040740  _hb_compGenPCode1
 0001:00040780  _hb_compGenPCode2
 0001:000407CC  _hb_compGenPCode3
 0001:00040828  _hb_compGenPCode4
 0001:00040890  _hb_compGenPCodeN
 0001:000408E4  _hb_macroError
 0001:000408F8  _hb_compCodeBlockStart
 0001:00040938  _hb_compCodeBlockEnd
 0001:000409C8  _hb_memvarsClear
 0001:000409C8  C87_0
 0001:00040A20  _hb_memvarsInit
 0001:00040A74  _hb_memvarsRelease
 0001:00040ADC  _hb_memvarValueBaseAddress
 0001:00040AE4  _hb_memvarValueNew
 0001:00040BC8  _hb_memvarDetachLocal
 0001:00040C4C  _hb_memvarGetPrivatesBase
 0001:00040C60  _hb_memvarSetPrivatesBase
 0001:00040CD8  _hb_memvarValueIncRef
 0001:00040D30  _hb_memvarValueDecRef
 0001:00040D7C  _hb_memvarValueDecGarbageRef
 0001:00040DD0  _hb_memvarSetValue
 0001:00040E8C  _hb_memvarGet
 0001:00040EF8  _hb_memvarGetValue
 0001:00040F70  _hb_memvarGetRefer
 0001:00041080  _hb_memvarNewParameter
 0001:0004109C  _hb_memvarGetStrValuePtr
 0001:00041118  _hb_memvarCreateFromItem
 0001:0004142C  _hb_memvarScope
 0001:00041508  _hb_memvarReleasePublic
 0001:00041634  _HB_FUN___MVPUBLIC
 0001:000416C0  _HB_FUN___MVPRIVATE
 0001:00041750  _HB_FUN___MVXRELEASE
 0001:000417CC  _HB_FUN___MVRELEASE
 0001:00041844  _HB_FUN___MVSCOPE
 0001:000418D8  _HB_FUN___MVCLEAR
 0001:000418E0  _HB_FUN___MVDBGINFO
 0001:000419B4  _HB_FUN___MVEXIST
 0001:000419FC  _HB_FUN___MVGET
 0001:00041ACC  _HB_FUN___MVPUT
 0001:00041E38  _HB_FUN___MVSAVE
 0001:000420A8  _HB_FUN___MVRESTORE
 0001:000426B0  _hb_memvarsIsMemvarRef
 0001:000426EC  _hb_memvarGetVarHandle
 0001:00042708  _hb_memvarGetValueByHandle
 0001:000427A8  _HB_FUN___MVSYMBOLINFO
 0001:000427D8  _hb_memvarGetValueBySym
 0001:000427F8  _HB_FUN_PCOUNT
 0001:000427F8  C89_0
 0001:00042824  C91_0
 0001:00042824  _HB_FUN_METHODNAME
 0001:0004285C  _HB_FUN_PROCNAME
 0001:00042894  _HB_FUN_PROCLINE
 0001:000428CC  _HB_FUN_PROCFILE
 0001:00042900  _hb_procinfo
 0001:00042B7C  C95_0
 0001:000431A4  _hb_set_SetPrinterStart
 0001:000431F0  _hb_set_SetPrinterStop
 0001:0004323C  _hb_setSetCentury
 0001:00043398  _HB_FUN___SETCENTURY
 0001:000433E4  _HB_FUN_SETCANCEL
 0001:00043420  _HB_FUN_SET
 0001:00045348  _hb_setInitialize
 0001:000456AC  _hb_setRelease
 0001:00045884  _hb_setClone
 0001:00045A1C  _hb_setListenerAdd
 0001:00045A90  _hb_setListenerNotify
 0001:00045AC0  _hb_setListenerRemove
 0001:00045CAC  _hb_setSetItem
 0001:00046C64  _hb_setSetItem2
 0001:00046D0C  _hb_setGetL
 0001:00046FE4  _hb_setGetCPtr
 0001:000471E0  _hb_setGetNI
 0001:00047400  _hb_setGetNL
 0001:00047410  _hb_setGetFirstSetPath
 0001:00047418  _hb_setGetAltHan
 0001:00047420  _hb_setGetCentury
 0001:00047428  _hb_setGetExtraHan
 0001:00047430  _hb_setGetPrintHan
 0001:00047438  _hb_setGetAlternate
 0001:00047440  _hb_setGetAltFile
 0001:00047448  _hb_setGetAutOpen
 0001:00047450  _hb_setGetAutOrder
 0001:00047458  _hb_setGetAutoShare
 0001:00047460  _hb_setGetBell
 0001:00047468  _hb_setGetCancel
 0001:00047470  _hb_setGetColor
 0001:00047478  _hb_setGetConfirm
 0001:00047480  _hb_setGetConsole
 0001:00047488  _hb_setGetDateFormat
 0001:00047490  _hb_setGetTimeFormat
 0001:00047498  _hb_setGetDebug
 0001:000474A0  _hb_setGetDecimals
 0001:000474A8  _hb_setGetDefault
 0001:000474B0  _hb_setGetDeleted
 0001:000474B8  _hb_setGetDelimChars
 0001:000474C0  _hb_setGetDelimiters
 0001:000474C8  _hb_setGetDevice
 0001:000474D0  _hb_setGetEOF
 0001:000474D8  _hb_setGetEpoch
 0001:000474E0  _hb_setGetEscape
 0001:000474E8  _hb_setGetEventMask
 0001:000474F0  _hb_setGetExact
 0001:000474F8  _hb_setGetExclusive
 0001:00047500  _hb_setGetExit
 0001:00047508  _hb_setGetExtra
 0001:00047510  _hb_setGetExtraFile
 0001:00047518  _hb_setGetFixed
 0001:00047520  _hb_setGetIdleRepeat
 0001:00047528  _hb_setGetInsert
 0001:00047530  _hb_setGetIntensity
 0001:00047538  _hb_setGetPath
 0001:00047540  _hb_setGetMargin
 0001:00047548  _hb_setGetMBlockSize
 0001:00047550  _hb_setGetMCenter
 0001:00047558  _hb_setGetMessage
 0001:00047560  _hb_setGetMFileExt
 0001:00047568  _hb_setGetOptimize
 0001:00047570  _hb_setGetPrinter
 0001:00047578  _hb_setGetPrintFile
 0001:00047580  _hb_setGetScoreBoard
 0001:00047588  _hb_setGetScrollBreak
 0001:00047590  _hb_setGetSoftSeek
 0001:00047598  _hb_setGetStrictRead
 0001:000475A0  _hb_setGetTypeAhead
 0001:000475A8  _hb_setGetUnique
 0001:000475B0  _hb_setGetFileCase
 0001:000475B8  _hb_setGetDirCase
 0001:000475C0  _hb_setGetDirSeparator
 0001:000475C8  _hb_setGetVideoMode
 0001:000475D0  _hb_setGetWrap
 0001:000475D8  _hb_setGetDBFLockScheme
 0001:000475E0  _hb_setGetHardCommit
 0001:000475E8  _hb_setGetForceOpt
 0001:000475F0  _hb_setGetDefExtension
 0001:000475F8  _hb_setGetEOL
 0001:00047600  _hb_setGetTrimFileName
 0001:00047608  _hb_setGetOSCODEPAGE
 0001:00047610  _hb_osEncodeCP
 0001:000476A4  _hb_osDecodeCP
 0001:00047738  _hb_setGetAppendError
 0001:00047740  _hb_setGetErrorLog
 0001:00047748  _hb_setGetTrace
 0001:00047750  _hb_setGetTraceFile
 0001:00047758  _hb_setGetTraceStack
 0001:00047760  _hb_setGetErrorLoop
 0001:00047768  _hb_setGetOutputSafety
 0001:00047770  _hb_setGetBackgroundTasks
 0001:00047778  _hb_setGetWinPrinter
 0001:00047780  _hb_setGetWinHan
 0001:00047788  _hb_setGetPrinterJob
 0001:00047790  _hb_setGetBackGroundTick
 0001:00047798  _hb_setGetWorkareasShared
 0001:000477A0  C99_0
 0001:000477A0  _hb_threadSleep
 0001:000477BC  _HB_FUN_THREADSLEEP
 0001:00047810  _HB_FUN_SECONDSSLEEP
 0001:00047868  _HB_FUN_THREADINSPECT
 0001:0004786C  _HB_FUN_THREADINSPECTEND
 0001:00047870  _HB_FUN_THREADISINSPECTOR
 0001:00047880  _HB_FUN_HB_MUTEXCREATE
 0001:00047884  _HB_FUN_HB_MUTEXLOCK
 0001:00047888  _HB_FUN_HB_MUTEXTIMEOUTLOCK
 0001:0004788C  _HB_FUN_HB_MUTEXTRYLOCK
 0001:00047890  _HB_FUN_HB_MUTEXUNLOCK
 0001:00047894  _HB_FUN_STARTTHREAD
 0001:00047898  _HB_FUN_JOINTHREAD
 0001:0004789C  _HB_FUN_KILLTHREAD
 0001:000478A0  _HB_FUN_STOPTHREAD
 0001:000478A4  _HB_FUN_ISVALIDTHREAD
 0001:000478B4  _hb_service_hbstartservice
 0001:000478BC  _hb_service_ConsoleHandlerRoutineDestroyStack
 0001:000478C4  _hb_service_ConsoleHandlerRoutineInit
 0001:000478C8  _hb_service_threadCancel
 0001:000478D8  _hb_service_signalHandlerQuit
 0001:000478EC  _hb_rdd_wacore_rddWaInit
 0001:000478F4  _hb_rdd_wacore_hb_atomic_inc
 0001:000478FC  _hb_rdd_wacore_Lock
 0001:00047904  _hb_rdd_wacore_Unlock
 0001:0004790C  _hb_rdd_wacore_LockInit
 0001:00047914  _hb_rdd_wacore_LockDestroy
 0001:0004791C  _hb_rdd_wacore_rddWaShutDown
 0001:0004792C  _hb_rdd_wacore_rddChangeSetWorkareasShared
 0001:00047938  _hb_rddGetAliasNameTH
 0001:00047948  _hb_get_Area_Handle_From_Sym
 0001:00047968  _hb_get_Area_Handle_From_Name
 0001:00047990  _hb_get_Area_Sym
 0001:000479A0  _hb_idle_msec_default
 0001:000479A8  _hb_idle_releaseCPU
 0001:000479C4  _hb_stack_lock
 0001:000479C8  _hb_stack_unlock
 0001:000479CC  _hb_console_safe_lock
 0001:000479D0  _hb_console_safe_unlock
 0001:000479D4  _hb_threadLockInit
 0001:000479DC  _hb_threadLock
 0001:000479E4  _hb_threadUnLock
 0001:000479EC  _hb_threadLockDestroy
 0001:000479F4  _HB_FUN_HB_GETCURRENTPROCESSID
 0001:00047A08  _hb_winmainArgInit
 0001:00047A08  C101_0
 0001:00047A34  _hb_winmainArgGet
 0001:00047A6C  _hb_winmainGetInstance
 0001:00047A74  _hb_cmdargInit
 0001:00047A8C  _hb_cmdargARGC
 0001:00047A94  _hb_cmdargARGV
 0001:00047A9C  _hb_cmdargIsInternal
 0001:00047C80  _hb_cmdargCheck
 0001:00047C9C  _hb_cmdargString
 0001:00047CB0  _hb_cmdargNum
 0001:00047CE8  _HB_FUN_HB_ARGCHECK
 0001:00047D2C  _HB_FUN_HB_ARGSTRING
 0001:00047D84  _HB_FUN_HB_ARGC
 0001:00047D9C  _HB_FUN_HB_ARGV
 0001:00047DF8  _hb_cmdargProcessVM
 0001:00047F88  _hb_verCvsID
 0001:00047F90  _hb_verSVNDateID
 0001:00047F98  _hb_verCvsChangeLogID
 0001:00047FA0  _hb_verCvsLastEntry
 0001:00047FA8  _hb_verFlagsC
 0001:00047FB0  _hb_verFlagsL
 0001:00047FB8  _hb_verFlagsPRG
 0001:00047FC0  _HB_FUN_HB_CMDARGARGV
 0001:00047FD8  C105_0
 0001:00047FD8  _hb_i18nInit
 0001:000480D0  _hb_i18nExit
 0001:000480EC  _hb_i18n_scan_table
 0001:000481F4  _hb_i18n_build_table_filename
 0001:000482A4  _hb_i18n_read_table_header
 0001:000483A8  _hb_i18n_write_table_header
 0001:00048478  _hb_i18n_read_table
 0001:000485F8  _hb_i18n_read_memory_table
 0001:00048754  _hb_i18n_write_table
 0001:00048848  _hb_i18n_load_language
 0001:00048A68  _HB_FUN_HB_I18NLOADTABLE
 0001:00048B88  _HB_FUN_HB_I18NSORTTABLE
 0001:00048CD0  _HB_FUN_HB_I18NSAVETABLE
 0001:00048DEC  _HB_FUN_I18N
 0001:00048E68  _HB_FUN_HB_I18NSETPATH
 0001:00048EC0  _HB_FUN_HB_I18NGETPATH
 0001:00048ED4  _HB_FUN_HB_I18NSETLANGUAGE
 0001:00048FB0  _HB_FUN_HB_I18NGETLANGUAGE
 0001:00048FC4  _HB_FUN_HB_I18NGETLANGUAGENAME
 0001:00048FD8  _HB_FUN_HB_I18NGETBASELANGUAGE
 0001:00048FEC  _HB_FUN_HB_I18NGETBASELANGUAGENAME
 0001:00049000  _HB_FUN_HB_I18NSETBASELANGUAGE
 0001:000490C0  _HB_FUN_HB_I18NINITIALIZED
 0001:000490E4  _HB_FUN_HB_HFIND
 0001:000491A4  C109_0
 0001:000491A4  _HB_FUN_BREAK
 0001:000491B8  C111_0
 0001:000491B8  _hb_vmSymbolInit_RT
 0001:000491D4  C117_0
 0001:000491D4  _HB_FUN_THROW
 0001:0004924C  C119_0
 0001:0004924C  C119_3
 0001:00049284  _HB_FUN_CLIPPER520
 0001:00049298  _HB_FUN_CLIPPER530
 0001:000492AC  _HB_FUN_CLIPINIT
 0001:000492C0  _HB_FUN___SETHELPK
 0001:000492D4  _HB_FUN___BREAKBLOCK
 0001:000492E8  _HB_FUN___ERRORBLOCK
 0001:000492FC  _HB_FUN___MINIMALERRORHANDLER
 0001:00049310  _HB_FUN_SYSINIT
 0001:0004934C  C121_0
 0001:0004934C  C121_3
 0001:00049384  _HB_FUN_HB_ERROR_MT
 0001:00049398  _hb_backgroundAddFunc
 0001:00049398  C127_0
 0001:00049464  _hb_backgroundRun
 0001:00049568  _hb_backgroundRunForced
 0001:000495B4  _hb_backgroundRunSingle
 0001:000495FC  _hb_backgroundReset
 0001:00049618  _hb_backgroundShutDown
 0001:00049670  _hb_backgroundDelFunc
 0001:00049794  _hb_backgroundFind
 0001:000497C8  _hb_backgroundActive
 0001:000497EC  _hb_backgroundTime
 0001:00049810  _HB_FUN_HB_BACKGROUNDRUN
 0001:0004983C  _HB_FUN_HB_BACKGROUNDRUNFORCED
 0001:00049860  _HB_FUN_HB_BACKGROUNDRESET
 0001:00049868  _HB_FUN_HB_BACKGROUNDADD
 0001:000498F8  _HB_FUN_HB_BACKGROUNDDEL
 0001:00049944  _HB_FUN_HB_BACKGROUNDACTIVE
 0001:000499B0  _HB_FUN_HB_BACKGROUNDTIME
 0001:00049A0C  WinMain
 0001:00049A0C  C133_0
 0001:00049B38  C135_0
 0001:00049B38  _HB_FUN_ABS
 0001:00049CF4  _HB_FUN_AT
 0001:00049CF4  C141_0
 0001:00049E34  _hb_AtSkipStrings
 0001:00049FAC  _HB_FUN_ATSKIPSTRINGS
 0001:0004A04C  _HB_FUN_ATI
 0001:0004A18C  _HB_FUN_DISPBOX
 0001:0004A18C  C147_0
 0001:0004A30C  _HB_FUN_HB_DISPBOX
 0001:0004A3FC  C149_0
 0001:0004A3FC  _HB_FUN_HB_CODEPAGE_EN
 0001:0004A400  _hb_cdppage
 0001:0004A688  _hb_cdpRegister
 0001:0004AA4C  _hb_cdpFind
 0001:0004AA70  _hb_cdpcharsetFind
 0001:0004AAC4  _hb_cdpSelect
 0001:0004AADC  _hb_cdpID
 0001:0004AAF4  _hb_cdpSelectID
 0001:0004AB18  _hb_cdpTranslate
 0001:0004ABFC  _hb_cdpnTranslate
 0001:0004ACEC  _hb_cdpGetU16
 0001:0004AD40  _hb_cdpGetChar
 0001:0004ADB0  _hb_cdpUTF8StringSubstr
 0001:0004AE98  _hb_cdpUTF8StringPeek
 0001:0004AF28  _hb_cdpUTF8StringLength
 0001:0004AF7C  _hb_cdpStringInUTF8Length
 0001:0004AFC0  _hb_cdpStringInUTF8Length2
 0001:0004B00C  _hb_cdpUTF8ToStrn
 0001:0004B108  _hb_cdpGetFromUTF8
 0001:0004B18C  _hb_cdpStrnToUTF8
 0001:0004B294  _hb_cdpStrnToUTF8n
 0001:0004B3E0  _hb_cdpStrnToU16
 0001:0004B4BC  _hb_cdpnDupLen
 0001:0004B50C  _hb_cdpnDup2Len
 0001:0004B564  _hb_cdpDup
 0001:0004B590  _hb_cdpnDup
 0001:0004B6A4  _hb_cdpnDup2
 0001:0004B76C  _hb_cdpnDup3
 0001:0004B8C8  _hb_cdpchrcmp
 0001:0004B990  _hb_cdpcmp
 0001:0004BCAC  _hb_cdpicmp
 0001:0004BF70  _hb_cdpReleaseAll
 0001:0004C000  _HB_FUN_HB_CDPSELECT
 0001:0004C038  _HB_FUN_HB_CDPUNIID
 0001:0004C068  _HB_FUN_HB_SETCODEPAGE
 0001:0004C070  _HB_FUN_HB_TRANSLATE
 0001:0004C134  _HB_FUN_HB_CDPLIST
 0001:0004C188  _HB_FUN_HB_STRTOUTF8
 0001:0004C238  _HB_FUN_HB_UTF8CHR
 0001:0004C294  _HB_FUN_HB_UTF8TOSTR
 0001:0004C368  _HB_FUN_HB_UTF8SUBSTR
 0001:0004C478  _HB_FUN_HB_UTF8LEFT
 0001:0004C50C  _HB_FUN_HB_UTF8RIGHT
 0001:0004C5BC  _HB_FUN_HB_UTF8PEEK
 0001:0004C644  _HB_FUN_HB_UTF8POKE
 0001:0004C7F4  _HB_FUN_HB_UTF8STUFF
 0001:0004C970  _HB_FUN_HB_UTF8LEN
 0001:0004C9BC  _HB_FUN_HB_UTF8STRTRAN
 0001:0004C9C4  _HB_FUN_CHR
 0001:0004C9C4  C151_0
 0001:0004CA1C  _HB_FUN_ASC
 0001:0004CA74  C155_0
 0001:0004CA74  _HB_FUN_HB_COLORINDEX
 0001:0004CB4C  _hb_conInit
 0001:0004CB4C  C157_0
 0001:0004CBCC  _hb_conRelease
 0001:0004CBF8  _hb_conNewLine
 0001:0004CC00  _HB_FUN_HB_OSNEWLINE
 0001:0004CC14  _hb_conOutStd
 0001:0004CC4C  _hb_conOutErr
 0001:0004CC98  _hb_conOutAlt
 0001:0004CE98  _HB_FUN_OUTSTD
 0001:0004CEE4  _HB_FUN_OUTERR
 0001:0004CF30  _HB_FUN_QQOUT
 0001:0004CF7C  _HB_FUN_QOUT
 0001:0004D054  _HB_FUN___EJECT
 0001:0004D0A0  _HB_FUN_PROW
 0001:0004D0B8  _HB_FUN_PCOL
 0001:0004D290  _HB_FUN_DEVPOS
 0001:0004D2D8  _HB_FUN_SETPRC
 0001:0004D330  _HB_FUN_DEVOUT
 0001:0004D3DC  _HB_FUN_DISPOUT
 0001:0004D4B0  _HB_FUN_DISPOUTAT
 0001:0004D5A4  _HB_FUN_HB_DISPOUTAT
 0001:0004D664  _HB_FUN_HB_GETSTDIN
 0001:0004D67C  _HB_FUN_HB_GETSTDOUT
 0001:0004D694  _HB_FUN_HB_GETSTDERR
 0001:0004D6AC  _HB_FUN_HBCONSOLELOCK
 0001:0004D6B8  _HB_FUN_HBCONSOLEUNLOCK
 0001:0004D6C4  C161_0
 0001:0004D6C4  _hb_dateCMonth
 0001:0004D6EC  _hb_dateCDOW
 0001:0004D714  _HB_FUN_CMONTH
 0001:0004D78C  _HB_FUN_CDOW
 0001:0004D82C  C163_0
 0001:0004DDD4  _HB_FUN_CTOD
 0001:0004DE64  _HB_FUN_DTOC
 0001:0004DEDC  _HB_FUN_DTOS
 0001:0004DF40  _HB_FUN_STOD
 0001:0004DFDC  _HB_FUN_YEAR
 0001:0004E050  _HB_FUN_MONTH
 0001:0004E0C4  _HB_FUN_DAY
 0001:0004E138  _HB_FUN_TIME
 0001:0004E15C  _HB_FUN_TIMEOFDAY
 0001:0004E1E8  _HB_FUN_DATE
 0001:0004E224  _HB_FUN_DOW
 0001:0004E27C  _HB_FUN_DATETIME
 0001:0004E354  _HB_FUN_TTOD
 0001:0004E3A0  _HB_FUN_TTOS
 0001:0004E3F8  _HB_FUN_TTOC
 0001:0004E520  _HB_FUN_HOUR
 0001:0004E58C  _HB_FUN_MINUTE
 0001:0004E5F8  _HB_FUN_SECS
 0001:0004E648  _HB_FUN_CTOT
 0001:0004E7CC  _HB_FUN_STOT
 0001:0004E8A4  _HB_FUN_HMS2D
 0001:0004E8FC  _HB_FUN_HB_TSTOSTR
 0001:0004EA14  C171_0
 0001:0004EA50  _HB_FUN_HB_ISREMOTEDISK
 0001:0004EAB8  _HB_FUN_HB_ISRAMDISK
 0001:0004EB20  _HB_FUN_HB_ISHARDDISK
 0001:0004EB88  _HB_FUN_HB_ISCDROM
 0001:0004EBF0  _HB_FUN_HB_ISDISKETTE
 0001:0004EC58  _HB_FUN_HB_DISKREADY
 0001:0004ECE8  _HB_FUN_HB_DISKREADYW
 0001:0004ECF0  _HB_FUN_DIRCHANGE
 0001:0004ED54  _HB_FUN_MAKEDIR
 0001:0004EDB8  _HB_FUN_DIRREMOVE
 0001:0004EE1C  _HB_FUN_ISDISK
 0001:0004EEA4  _HB_FUN_DISKCHANGE
 0001:0004EF2C  _HB_FUN_DISKNAME
 0001:0004EF60  C175_0
 0001:0004EF60  _HB_FUN_DISKSPACE
 0001:0004F12C  C181_0
 0001:0004F12C  _HB_FUN_EMPTY
 0001:0004F380  C183_0
 0001:0004F380  _hb_fsFile
 0001:0004F440  _hb_fsIsDirectory
 0001:0004F4D4  C185_0
 0001:0004FDD0  _hb_fileRegister
 0001:0004FE10  _hb_fileDelete
 0001:0004FE54  _hb_fileExists
 0001:0004FEA0  _hb_fileRename
 0001:0004FEEC  _hb_fileExtOpen
 0001:0004FF58  _hb_fileClose
 0001:0004FF68  _hb_fileLock
 0001:0004FF8C  _hb_fileReadAt
 0001:0004FFAC  _hb_fileWriteAt
 0001:0004FFCC  _hb_fileTruncAt
 0001:0004FFE4  _hb_fileSize
 0001:0004FFF4  _hb_fileSeekLarge
 0001:00050010  _hb_fileWriteLarge
 0001:0005002C  _hb_fileReadLarge
 0001:00050048  _hb_fileFlush
 0001:00050060  _hb_fileCommit
 0001:00050070  _hb_fileHandle
 0001:00050080  _hb_fileCreateTemp
 0001:000500C0  _hb_fileCreateTempEx
 0001:00050104  _hb_filebufInit
 0001:00050110  _HB_FUN_FILE
 0001:00050110  C187_0
 0001:0005014C  _HB_FUN_ISDIRECTORY
 0001:00050184  C193_0
 0001:00050300  _hb_fsGetOsHandle
 0001:00050310  _hb_fsPOpen
 0001:00050328  _hb_fsOpenProcess
 0001:000506E4  _hb_fsProcessValue
 0001:0005075C  _hb_fsCloseProcess
 0001:00050798  _hb_fsOpen
 0001:00050824  _hb_fsCreate
 0001:000508B0  _hb_fsCreateEx
 0001:00050940  _hb_fsClose
 0001:0005096C  _hb_fsSetDevMode
 0001:000509D8  _hb_fsGetFileTime
 0001:00050A9C  _hb_fsGetAttr
 0001:00050B00  _hb_fsSetFileTime
 0001:00050C24  _hb_fsSetAttr
 0001:00050CAC  _hb_fsRead
 0001:00050D04  _hb_fsWrite
 0001:00050D78  _hb_fsReadLarge
 0001:00050DB8  _hb_fsWriteLarge
 0001:00050E1C  _hb_fsReadAt
 0001:00050ED0  _hb_fsWriteAt
 0001:00050F84  _hb_fsTruncAt
 0001:00051008  _hb_fsCommit
 0001:00051034  _hb_fsLock
 0001:00051160  _hb_fsLockLarge
 0001:000512C4  _hb_fsSeek
 0001:00051348  _hb_fsSeekLarge
 0001:00051454  _hb_fsTell
 0001:0005146C  _hb_fsDelete
 0001:000514B8  _hb_fsRename
 0001:0005152C  _hb_fsMkDir
 0001:00051578  _hb_fsChDir
 0001:000515C4  _hb_fsRmDir
 0001:00051610  _hb_fsCurDir
 0001:00051634  _hb_fsCurDirBuff
 0001:00051730  _hb_fsChDrv
 0001:000517B4  _hb_fsCurDrv
 0001:000517E8  _hb_fsIsDrv
 0001:00051838  _hb_fsIsDevice
 0001:00051870  _hb_fsExtName
 0001:000519D8  _hb_fsExtOpen
 0001:00051AB4  _hb_fsEof
 0001:00051B80  _hb_fsCurDirEx
 0001:00051BA4  _hb_fsCurDirBuffEx
 0001:00051C3C  _hb_fsNameConv
 0001:00051EBC  _HB_FUN_HB_DISABLEWAITLOCKS
 0001:00051F10  _HB_FUN_DISABLEWAITLOCKS
 0001:00051F18  C195_0
 0001:00051F68  _hb_fsGetFError
 0001:00051F74  _hb_fsError
 0001:00051F80  _hb_fsOsError
 0001:00051F8C  _hb_fsSetFError
 0001:00051FA0  _hb_fsSetError
 0001:00051FB8  _hb_fsSetIOError
 0001:00051FF0  C199_0
 0001:00051FF0  _HB_FUN_HB_FNAMESPLIT
 0001:00052064  _HB_FUN_HB_FNAMEMERGE
 0001:000520C0  C201_0
 0001:000520C0  _hb_ParseLine
 0001:00052410  _file_read
 0001:000524A0  _HB_FUN_FPARSE
 0001:00052638  _HB_FUN_FPARSEEX
 0001:0005276C  _HB_FUN_FWORDCOUNT
 0001:00052870  _HB_FUN_FLINECOUNT
 0001:00052914  _HB_FUN_FCHARCOUNT
 0001:000529CC  _HB_FUN_FPARSELINE
 0001:00052A58  C203_0
 0001:00052A58  _hb_fsFSize
 0001:00052B0C  _HB_FUN_HB_FSIZE
 0001:00052B60  C205_0
 0001:00052D40  _hb_fsCreateTemp
 0001:00052D90  _HB_FUN_HB_FTEMPCREATE
 0001:00052DF8  _hb_fsCreateTempEx
 0001:00052E1C  _HB_FUN_HB_FTEMPCREATEEX
 0001:00052E90  _hb_fsTempDir
 0001:00052F14  _HB_FUN_HB_DIRTEMP
 0001:00052F50  C209_0
 0001:00052F50  _HB_FUN_DISPBEGIN
 0001:00052F58  _HB_FUN_DISPEND
 0001:00052F60  _HB_FUN_DISPCOUNT
 0001:00052F78  C211_0
 0001:00052F78  _hb_gtInit
 0001:00053018  _hb_gtExit
 0001:00053068  _hb_gtReadKey
 0001:00053090  _hb_gtBox
 0001:000530F8  _hb_gtBoxD
 0001:00053164  _hb_gtBoxS
 0001:000531D0  _hb_gtDrawBox
 0001:0005322C  _hb_gtColorSelect
 0001:00053250  _hb_gtDispBegin
 0001:0005326C  _hb_gtDispCount
 0001:00053288  _hb_gtDispEnd
 0001:000532B0  _hb_gtPreExt
 0001:000532D0  _hb_gtPostExt
 0001:000532F0  _hb_gtGetColorStr
 0001:0005331C  _hb_gtColorToN
 0001:00053340  _hb_gtColorsToString
 0001:00053378  _hb_gtSetColorStr
 0001:0005339C  _hb_gtGetCursor
 0001:000533D0  _hb_gtSetCursor
 0001:00053410  _hb_gtGetPos
 0001:0005345C  _hb_gtSetPos
 0001:00053494  _hb_gtMaxCol
 0001:000534B0  _hb_gtMaxRow
 0001:000534CC  _hb_gtScrDim
 0001:00053518  _hb_gtSetSnowFlag
 0001:00053540  _hb_gtRectSize
 0001:00053584  _hb_gtIsColor
 0001:000535A0  _hb_gtRepChar
 0001:000535F0  _hb_gtSave
 0001:0005362C  _hb_gtRest
 0001:00053674  _hb_gtGetChar
 0001:000536B0  _hb_gtPutChar
 0001:000536F0  _hb_gtBeginWrite
 0001:000536F4  _hb_gtEndWrite
 0001:0005370C  _hb_gtGetBlink
 0001:0005373C  _hb_gtSetBlink
 0001:00053764  _hb_gtSetMode
 0001:00053794  _hb_gtPutText
 0001:000537EC  _hb_gtWriteAt
 0001:0005382C  _hb_gtWrite
 0001:00053864  _hb_gtWriteCon
 0001:0005389C  _hb_gtScroll
 0001:00053908  _hb_gtScrollUp
 0001:00053950  _hb_gtDrawShadow
 0001:00053998  _hb_gtTone
 0001:000539C8  _hb_gtVersion
 0001:000539F4  _hb_gtSetAttribute
 0001:00053A3C  _hb_gtSuspend
 0001:00053A5C  _hb_gtResume
 0001:00053A7C  _hb_gtOutStd
 0001:00053AB4  _hb_gtOutErr
 0001:00053AEC  _hb_gtSetDispCP
 0001:00053B20  _hb_gtSetKeyCP
 0001:00053B50  _hb_gtInfo
 0001:00053B80  _hb_gtAlert
 0001:00053BB8  _hb_gtSetFlag
 0001:00053BE4  _hb_gtGetCurrColor
 0001:00053C00  _hb_gtGetClearColor
 0001:00053C1C  _hb_gtSetClearColor
 0001:00053C40  _hb_gtGetClearChar
 0001:00053C5C  _hb_gtSetClearChar
 0001:00053C84  _hb_gtGetScrChar
 0001:00053CC0  _hb_gtPutScrChar
 0001:00053CFC  _hb_gtFlush
 0001:00053D14  _hb_gtGetPosEx
 0001:00053D48  _hb_gtScrollEx
 0001:00053DC4  _hb_gtBoxEx
 0001:00053E30  _hb_gtGfxPrimitive
 0001:00053E78  _hb_gtGfxText
 0001:00053EC0  _hb_gt_setClipboard
 0001:00053EC0  C217_0
 0001:00053F24  _hb_gt_getClipboard
 0001:00053F88  _hb_gt_w32_setClipboard
 0001:00054060  _hb_gt_w32_getClipboard
 0001:00054178  C219_0
 0001:00054178  _HB_FUN_HB_SETDISPCP
 0001:0005420C  _HB_FUN_HB_SETKEYCP
 0001:00054254  _HB_FUN_HB_SETTERMCP
 0001:00054318  _HB_FUN_HB_GTINFO
 0001:00054390  _HB_FUN_HB_GTVERSION
 0001:000543B0  _HB_FUN_HB_GTALERT
 0001:00054458  _HB_FUN_HB_GFXPRIMITIVE
 0001:0005450C  _HB_FUN_HB_GFXTEXT
 0001:000545A8  C223_0
 0001:000545A8  _hb_gt_w32_getKbdState
 0001:00054698  _hb_gt_w32_setKbdState
 0001:000547CC  C225_0
 0001:00054920  _hb_gt_w32_tone
 0001:00054A50  _HB_FUN_HB_GTSYS
 0001:00054A50  C227_0
 0001:00054A54  _HB_FUN_ISCOLOR
 0001:00054A54  C229_0
 0001:00054A78  _HB_FUN_NOSNOW
 0001:00054A9C  _HB_FUN_SETMODE
 0001:00054B1C  C233_0
 0001:00054B9C  _HB_FUN_HB_BITAND
 0001:00054C1C  _HB_FUN_HB_BITOR
 0001:00054C9C  _HB_FUN_HB_BITXOR
 0001:00054D1C  _HB_FUN_HB_BITNOT
 0001:00054D7C  _HB_FUN_HB_BITISSET
 0001:00054DE8  _HB_FUN_HB_BITSET
 0001:00054E6C  _HB_FUN_HB_BITRESET
 0001:00054EF4  _HB_FUN_HB_BITSHIFT
 0001:00054FB4  C243_0
 0001:000551F8  s_ConsoleHandlerRoutine
 0001:0005530C  _HB_FUN_HB_STARTSERVICE
 0001:00055350  _hb_isService
 0001:00055358  _hb_serviceExit
 0001:00055374  _HB_FUN_HB_ISSERVICE
 0001:00055398  _HB_FUN_HB_SERVICELOOP
 0001:000553D8  _HB_FUN_HB_PUSHSIGNALHANDLER
 0001:0005549C  _HB_FUN_HB_POPSIGNALHANDLER
 0001:0005555C  _HB_FUN_HB_SIGNALDESC
 0001:00055788  _HB_FUN_HB_SERVICEGENERATEFAULT
 0001:00055798  _HB_FUN_HB_SERVICEGENERATEFPE
 0001:000557AC  C251_0
 0001:000557AC  _GetOldesFile
 0001:0005586C  _hb_fsAttrFromRaw
 0001:00055904  _hb_fsAttrToRaw
 0001:0005599C  _hb_fsAttrEncode
 0001:00055AA4  _hb_fsAttrDecode
 0001:00055D14  _hb_fsFindFirst
 0001:00055EFC  _hb_fsFindNext
 0001:00055F6C  _hb_fsFindClose
 0001:00055FA8  _hb_gt_Base
 0001:00055FA8  C255_0
 0001:000599C0  _hb_gt_FindDefault
 0001:00059A24  _hb_gtSetDefault
 0001:00059A48  _hb_gtRegister
 0001:00059A7C  _hb_gtLoad
 0001:00059BB8  _hb_gtUnLoad
 0001:00059BF8  _hb_gtStartupInit
 0001:00059D14  _HB_FUN_HB_GT_NUL
 0001:00059D18  _HB_FUN_HB_GT_NUL_DEFAULT
 0001:00059D1C  C257_0
 0001:00059D1C  _hb_hextonum
 0001:00059DB4  _HB_FUN_NUMTOHEX
 0001:00059EE0  _HB_FUN_HEXTONUM
 0001:00059F38  _HB_FUN_STRTOHEX
 0001:0005A09C  _HB_FUN_HEXTOSTR
 0001:0005A1A8  C269_0
 0001:0005A1A8  _HB_FUN_HB_RANDOM
 0001:0005A294  _HB_FUN_HB_RANDOMINT
 0001:0005A3EC  _HB_FUN_HB_RANDOMSEED
 0001:0005A420  _hb_random_num
 0001:0005A484  C275_0
 0001:0005A858  _HB_FUN_HB_TOKENCOUNT
 0001:0005A8CC  _HB_FUN_HB_TOKENGET
 0001:0005A958  _HB_FUN_HB_TOKENPTR
 0001:0005AA28  _HB_FUN_HB_ATOKENS
 0001:0005AA98  _HB_FUN___STRTOKEN
 0001:0005AAA0  _HB_FUN___STRTKPTR
 0001:0005AAA8  _HB_FUN___STRTOKENCOUNT
 0001:0005AAB0  C279_0
 0001:0005AAB0  _hb_releaseCPU
 0001:0005AB00  _hb_idleState
 0001:0005ABB8  _hb_idleReset
 0001:0005ABDC  _hb_idleShutDown
 0001:0005AC28  _hb_idleSleep
 0001:0005AC94  _HB_FUN_HB_IDLESTATE
 0001:0005ACA4  _HB_FUN_HB_IDLERESET
 0001:0005ACAC  _HB_FUN_HB_IDLESLEEP
 0001:0005ACC4  _hb_idleAddFunc
 0001:0005AD44  _HB_FUN_HB_IDLEADD
 0001:0005AD8C  _hb_idleDelFunc
 0001:0005AE68  _HB_FUN_HB_IDLEDEL
 0001:0005AEB0  _HB_FUN_HB_IDLESLEEPMSEC
 0001:0005AEFC  _HB_FUN_HB_IDLEWAITNOCPU
 0001:0005AF30  _HB_FUN_INKEY
 0001:0005AF30  C281_0
 0001:0005B06C  _HB_FUN_SETINKEYBEFOREBLOCK
 0001:0005B0D8  _HB_FUN_SETINKEYAFTERBLOCK
 0001:0005B144  _HB_FUN___KEYBOARD
 0001:0005B240  _HB_FUN_HB_KEYPUT
 0001:0005B318  _HB_FUN_NEXTKEY
 0001:0005B350  _HB_FUN_LASTKEY
 0001:0005B388  _HB_FUN_HB_SETLASTKEY
 0001:0005B3B8  _hb_inkey
 0001:0005B3B8  C283_0
 0001:0005B3E8  _hb_inkeyPut
 0001:0005B408  _hb_inkeyLast
 0001:0005B430  _hb_inkeyNext
 0001:0005B458  _hb_inkeyPoll
 0001:0005B46C  _hb_inkeySetLast
 0001:0005B494  _hb_inkeySetText
 0001:0005B4B8  _hb_inkeyReset
 0001:0005B4CC  _hb_inkeySetCancelKeys
 0001:0005B4D4  C285_0
 0001:0005B4D4  _HB_FUN_ISALPHA
 0001:0005B590  _HB_FUN_ISDIGIT
 0001:0005B5DC  _HB_FUN_ISUPPER
 0001:0005B66C  _HB_FUN_ISLOWER
 0001:0005B6FC  _HB_FUN_ISALNUM
 0001:0005B764  _HB_FUN_ISCNTRL
 0001:0005B7B0  _HB_FUN_ISGRAPH
 0001:0005B7FC  _HB_FUN_ISPRINT
 0001:0005B848  _HB_FUN_ISPUNCT
 0001:0005B894  _HB_FUN_ISSPACE
 0001:0005B8E0  _HB_FUN_ISXDIGIT
 0001:0005B92C  _HB_FUN_ISASCII
 0001:0005B974  _hb_lang_ForceLink
 0001:0005B974  C289_0
 0001:0005B9D0  _hb_langRegister
 0001:0005BA20  _hb_langDeRegister
 0001:0005BA48  _hb_langFind
 0001:0005BA6C  _hb_langSelect
 0001:0005BAA8  _hb_langSelectID
 0001:0005BACC  _hb_langDGetItem
 0001:0005BAF0  _hb_langID
 0001:0005BB08  _hb_langName
 0001:0005BB64  _hb_langDGetErrorDesc
 0001:0005BB78  _HB_FUN_HB_LANGSELECT
 0001:0005BBB0  _HB_FUN_HB_LANGNAME
 0001:0005BBD4  _HB_FUN_HB_LANGERRMSG
 0001:0005BBF4  _HB_FUN_HB_LANGMESSAGE
 0001:0005BC14  _HB_FUN_LEFT
 0001:0005BC14  C291_0
 0001:0005BCE0  C293_0
 0001:0005BCE0  _HB_FUN_LEN
 0001:0005BD74  _hb_mathResetError
 0001:0005BD74  C297_0
 0001:0005BDEC  _hb_mathGetLastError
 0001:0005BE68  _hb_mathIsMathErr
 0001:0005BE70  __matherr
 0001:0005BF94  _hb_mathSetErrMode
 0001:0005BFA8  _hb_mathGetErrMode
 0001:0005BFB0  _HB_FUN_MATHERRMODE
 0001:0005BFFC  _hb_matherr
 0001:0005C1BC  _hb_mathSetHandler
 0001:0005C1D0  _hb_mathGetHandler
 0001:0005C434  _HB_FUN_MATHERRORBLOCK
 0001:0005C4D8  _HB_FUN_EXP
 0001:0005C5C4  _HB_FUN_LOG
 0001:0005C6F8  _HB_FUN_SQRT
 0001:0005C7F4  _hb_MaxRow
 0001:0005C7F4  C299_0
 0001:0005C85C  _hb_MaxCol
 0001:0005C8C4  _HB_FUN_MAXROW
 0001:0005C904  _HB_FUN_MAXCOL
 0001:0005C944  _HB_FUN_MAX
 0001:0005C944  C303_0
 0001:0005CC98  _HB_FUN_MIN
 0001:0005CFEC  C309_0
 0001:0005CFEC  _hb_mouseIsPresent
 0001:0005D008  _hb_mouseGetCursor
 0001:0005D024  _hb_mouseSetCursor
 0001:0005D044  _hb_mouseCol
 0001:0005D060  _hb_mouseRow
 0001:0005D07C  _hb_mouseGetPos
 0001:0005D0A0  _hb_mouseSetPos
 0001:0005D0C4  _hb_mouseSetBounds
 0001:0005D0F0  _hb_mouseGetBounds
 0001:0005D11C  _hb_mouseStorageSize
 0001:0005D138  _hb_mouseSaveState
 0001:0005D158  _hb_mouseRestoreState
 0001:0005D178  _hb_mouseGetDoubleClickSpeed
 0001:0005D194  _hb_mouseSetDoubleClickSpeed
 0001:0005D1B4  _hb_mouseCountButton
 0001:0005D1D0  _hb_mouseButtonState
 0001:0005D1F8  _hb_mouseButtonPressed
 0001:0005D228  _hb_mouseButtonReleased
 0001:0005D258  _hb_mouseReadKey
 0001:0005D280  C313_0
 0001:0005D280  _HB_FUN_MPRESENT
 0001:0005D2A4  _HB_FUN_MHIDE
 0001:0005D2B0  _HB_FUN_MSHOW
 0001:0005D2BC  _HB_FUN_MSETCURSOR
 0001:0005D300  _HB_FUN_MROW
 0001:0005D360  _HB_FUN_MCOL
 0001:0005D3C4  _HB_FUN_MSETPOS
 0001:0005D400  _HB_FUN_MLEFTDOWN
 0001:0005D428  _HB_FUN_MRIGHTDOWN
 0001:0005D450  _HB_FUN_MDBLCLK
 0001:0005D484  _HB_FUN_MSAVESTATE
 0001:0005D4CC  _HB_FUN_MRESTSTATE
 0001:0005D504  _HB_FUN_MSETBOUNDS
 0001:0005D568  C317_0
 0001:0005D598  _HB_FUN_ISAFFIRM
 0001:0005D5F8  _HB_FUN_ISNEGATIVE
 0001:0005D658  _HB_FUN_NATIONMSG
 0001:0005D6C0  _HB_FUN__NATSORTVER
 0001:0005D6D4  _HB_FUN__NATMSGVER
 0001:0005D6E8  C319_0
 0001:0005D6E8  _hb_netname
 0001:0005D71C  _HB_FUN_NETNAME
 0001:0005D75C  C327_0
 0001:0005D75C  _HB_FUN_PAD
 0001:0005D764  _HB_FUN_PADC
 0001:0005D764  C329_0
 0001:0005D8A8  _HB_FUN_PADL
 0001:0005D8A8  C331_0
 0001:0005D9B8  C333_0
 0001:0005D9B8  _HB_FUN_PADR
 0001:0005DAC0  _HB_FUN_FOPEN
 0001:0005DAC0  C335_0
 0001:0005DB40  _HB_FUN_FCREATE
 0001:0005DBB8  _HB_FUN_HB_FCREATE
 0001:0005DC50  _HB_FUN_FREAD
 0001:0005DD18  _HB_FUN_FWRITE
 0001:0005DDBC  _HB_FUN_FERROR
 0001:0005DDE4  _HB_FUN_FCLOSE
 0001:0005DE48  _HB_FUN_FERASE
 0001:0005DEA0  _HB_FUN_FRENAME
 0001:0005DF0C  _HB_FUN_FSEEK
 0001:0005DF9C  _HB_FUN_FREADSTR
 0001:0005E044  _HB_FUN_CURDIR
 0001:0005E0B0  _HB_FUN_HB_F_EOF
 0001:0005E114  _HB_FUN_CURDIRX
 0001:0005E1CC  _HB_FUN_HB_FCOMMIT
 0001:0005E200  _HB_FUN_HB_FLOCK
 0001:0005E29C  _HB_FUN_HB_FUNLOCK
 0001:0005E328  _HB_FUN_HB_OSERROR
 0001:0005E340  _HB_FUN_HB_OSPATHSEPARATOR
 0001:0005E354  _HB_FUN_HB_OSPATHLISTSEPARATOR
 0001:0005E368  _HB_FUN_HB_OSPATHDELIMITERS
 0001:0005E37C  _HB_FUN_HB_OSDRIVESEPARATOR
 0001:0005E390  _HB_FUN_HB_OSFILEMASK
 0001:0005E3A4  _HB_FUN_HB_OPENPROCESS
 0001:0005E628  _HB_FUN_HB_CLOSEPROCESS
 0001:0005E6F0  _HB_FUN_HB_PROCESSVALUE
 0001:0005E7B0  _HB_FUN_RAT
 0001:0005E7B0  C341_0
 0001:0005E8A8  C345_0
 0001:0005E8A8  _HB_FUN_REPLICATE
 0001:0005E9D8  C347_0
 0001:0005E9D8  _HB_FUN_RIGHT
 0001:0005EA6C  C349_0
 0001:0005EA6C  _HB_FUN_INT
 0001:0005EAF8  _HB_FUN_ROUND
 0001:0005EBA0  C353_0
 0001:0005ECD4  _HB_FUN_DAYS
 0001:0005ECF4  _HB_FUN_ELAPTIME
 0001:0005ED50  _HB_FUN_TSSECS
 0001:0005ED70  _HB_FUN_TSTRING
 0001:0005ED9C  C355_0
 0001:0005EE50  _HB_FUN_SAVESCREEN
 0001:0005EEF8  _HB_FUN_RESTSCREEN
 0001:0005EF70  C357_0
 0001:0005EF70  _HB_FUN_SCROLL
 0001:0005F03C  _HB_FUN_SCROLLFIXED
 0001:0005F07C  _HB_FUN_HB_SCROLL
 0001:0005F1E4  C359_0
 0001:0005F1E4  _hb_dateTimeStamp
 0001:0005F254  _hb_dateMilliSeconds
 0001:0005F2DC  _hb_dateSeconds
 0001:0005F338  _HB_FUN_SECONDS
 0001:0005F354  _HB_FUN_SECONDSCPU
 0001:0005F378  _HB_FUN_HB_CLOCKS2SECS
 0001:0005F3B0  _hb_secondsCPU
 0001:0005F4B0  _hb_getregex
 0001:0005F4B0  C367_0
 0001:0005F578  _hb_freeregex
 0001:0005F590  _hb_regexCompile
 0001:0005F600  _hb_regexGet
 0001:0005F6A4  _hb_regexFree
 0001:0005F6D4  _hb_regexMatch
 0001:0005F72C  _hb_regex
 0001:0006000C  _Wild2RegEx
 0001:00060138  _Mask2RegEx
 0001:000601E4  _HB_FUN_HB_ATX
 0001:00060428  _HB_FUN_WILD2REGEX
 0001:0006046C  _HB_FUN_HB_REGEX
 0001:0006047C  _HB_FUN_HB_REGEXATX
 0001:0006048C  _HB_FUN_HB_REGEXALL
 0001:0006049C  _HB_FUN_HB_REGEXMATCH
 0001:000604D8  _HB_FUN_HB_REGEXSPLIT
 0001:000604E8  _HB_FUN_HB_REGEXCOMP
 0001:0006062C  _HB_FUN_HB_PCRE_VERSION
 0001:00060644  _HB_FUN_HB_ISREGEXSTRING
 0001:00060694  _HB_FUN_HB_FORCELINK_PCREPOS
 0001:0006069C  C369_0
 0001:0006069C  _hb_conSetColor
 0001:000606C4  _HB_FUN_SETCOLOR
 0001:000606E4  _HB_FUN_COLORSELECT
 0001:00060704  _HB_FUN_SETBLINK
 0001:00060750  _HB_FUN_HB_COLORTON
 0001:00060794  _HB_FUN_HB_NTOCOLOR
 0001:000607F4  C371_0
 0001:000607F4  _hb_conSetCursor
 0001:0006081C  _HB_FUN_SETCURSOR
 0001:00060858  C373_0
 0001:00060858  _hb_setkeyInit
 0001:00060860  _hb_setkeyExit
 0001:000609C8  _HB_FUN_SETKEY
 0001:00060A84  _HB_FUN_HB_SETKEYARRAY
 0001:00060AFC  _HB_FUN_HB_SETKEYGET
 0001:00060B58  _HB_FUN_HB_SETKEYSAVE
 0001:00060CBC  _HB_FUN_HB_SETKEYCHECK
 0001:00060DF8  _HB_FUN_SETPOS
 0001:00060DF8  C375_0
 0001:00060E34  _HB_FUN_ROW
 0001:00060E5C  _HB_FUN_COL
 0001:00060E88  _HB_FUN_SETPOSBS
 0001:00060E88  C377_0
 0001:00060EB4  C383_0
 0001:00060EB4  _HB_FUN_SPACE
 0001:00060F3C  C385_0
 0001:00060F3C  _hb_spFile
 0001:00061040  _hb_spFileExists
 0001:00061144  _hb_spOpen
 0001:0006118C  _hb_spCreate
 0001:000611E0  _hb_spCreateEx
 0001:00061238  _HB_FUN_STR
 0001:00061238  C387_0
 0001:00061478  _hb_strLower
 0001:00061478  C391_0
 0001:000614E0  _hb_strLowerCopy
 0001:0006156C  _hb_strUpperCopy
 0001:000615F8  _hb_strUpper
 0001:00061660  _hb_charLower
 0001:0006169C  _hb_charUpper
 0001:000616D8  _HB_FUN_LOWER
 0001:00061744  _HB_FUN_UPPER
 0001:000617B0  _HB_FUN_STRDEL
 0001:000617B0  C393_0
 0001:000618F4  _hb_strEmpty
 0001:000618F4  C395_0
 0001:0006192C  C397_0
 0001:0006192C  _hb_strMatchRegExp
 0001:00061974  _hb_strMatchWild
 0001:00061B1C  _hb_strMatchWildExact
 0001:00061CDC  _hb_strMatchCaseWildExact
 0001:00061EB4  _hb_strMatchFile
 0001:00061ECC  _HB_FUN_WILDMATCH
 0001:00061F58  _HB_FUN_HB_FILEMATCH
 0001:00061FBC  _HB_FUN_STRTRAN
 0001:00061FBC  C401_0
 0001:000622E0  _HB_FUN_STRZERO
 0001:000622E0  C403_0
 0001:00062424  _HB_FUN_STUFF
 0001:00062424  C405_0
 0001:000625A4  C407_0
 0001:000625A4  _HB_FUN_SUBSTR
 0001:000626F8  C411_0
 0001:000626F8  _hb_isLegacyDevice
 0001:0006274C  _hb_PrinterExists
 0001:00062860  _HB_FUN_PRINTEREXISTS
 0001:000628A8  _hb_GetDefaultPrinter
 0001:00062A0C  _HB_FUN_GETDEFAULTPRINTER
 0001:00062A60  _hb_SetDefaultPrinter
 0001:00062DD8  _HB_FUN_SETDEFAULTPRINTER
 0001:00062E04  _hb_GetPrinterNameByPort
 0001:00062F14  _HB_FUN_PRINTERPORTTONAME
 0001:00062FB0  _hb_PrintFileRaw
 0001:000630EC  _HB_FUN_PRINTFILERAW
 0001:00063170  _HB_FUN_GETPRINTERS
 0001:0006386C  _hb_traceInit
 0001:0006386C  C413_0
 0001:000638CC  _hb_traceExit
 0001:000638D8  _TraceLog
 0001:00063980  _HB_FUN_HB_TRACESTATE
 0001:000639B4  _HB_FUN_HB_TRACELEVEL
 0001:000639E8  _HB_FUN_HB_TRACESTRING
 0001:00063A1C  C415_0
 0001:00063A1C  _HB_FUN_TRANSFORM
 0001:0006571C  C417_0
 0001:0006571C  _hb_strLTrim
 0001:00065748  _hb_strRTrimLen
 0001:00065790  _HB_FUN_LTRIM
 0001:00065814  _HB_FUN_RTRIM
 0001:000658BC  _HB_FUN_TRIM
 0001:000658C4  _HB_FUN_ALLTRIM
 0001:0006597C  C421_0
 0001:0006597C  _HB_FUN_TYPE
 0001:000659F4  _HB_FUN_VAL
 0001:000659F4  C423_0
 0001:00065A94  C427_0
 0001:00065A94  _HB_FUN_VALTYPE
 0001:00065AB8  _HB_FUN_ISNULL
 0001:00065AF4  _HB_FUN_SETNULL
 0001:00065B18  _HB_FUN_HB_ISBYREF
 0001:00065B74  _HB_FUN_HB_ISNIL
 0001:00065BB4  _HB_FUN_HB_ISNUMERIC
 0001:00065BE0  _HB_FUN_HB_ISLOGICAL
 0001:00065C0C  _HB_FUN_HB_ISDATE
 0001:00065C38  _HB_FUN_HB_ISDATETIME
 0001:00065C64  _HB_FUN_HB_ISTIMESTAMP
 0001:00065C8C  _HB_FUN_HB_ISBLOCK
 0001:00065CB8  _HB_FUN_HB_ISPOINTER
 0001:00065CE4  _HB_FUN_HB_ISSTRING
 0001:00065D10  _HB_FUN_HB_ISCHAR
 0001:00065D40  _HB_FUN_HB_ISMEMO
 0001:00065D68  _HB_FUN_HB_ISARRAY
 0001:00065DB0  _HB_FUN_HB_ISOBJECT
 0001:00065DD8  _HB_FUN_HB_ISHASH
 0001:00065E04  _HB_FUN_HB_ISNULL
 0001:00065EC4  _HB_FUN_OS
 0001:00065EC4  C429_0
 0001:00065EE8  _HB_FUN_HB_COMPILER
 0001:00065F0C  _HB_FUN_VERSION
 0001:00065F30  _HB_FUN_HB_PCODEVER
 0001:00065F54  _HB_FUN_HB_BUILDDATE
 0001:00065F78  _HB_FUN_HB_BUILDINFO
 0001:00066258  C431_0
 0001:00066258  _HB_FUN_WORD
 0001:000662A4  C433_0
 0001:000662A4  _HB_FUN___XHELP
 0001:00066300  _hb_conXSaveRestRelease
 0001:00066300  C435_0
 0001:0006631C  _HB_FUN___XSAVESCREEN
 0001:00066390  _HB_FUN___XRESTSCREEN
 0001:000663E4  C441_0
 0001:000663E4  C441_3
 0001:0006641C  _HB_FUN_ALERT
 0001:00066430  _HB_FUN___NONOALERT
 0001:00066458  C455_0
 0001:00066458  C455_3
 0001:00066490  _HB_FUN_GETCLRPAIR
 0001:000664A4  _HB_FUN_SETCLRPAIR
 0001:000664B8  _HB_FUN_GETPAIRPOS
 0001:000664CC  _HB_FUN_GETPAIRLEN
 0001:000664E0  _HB_FUN_GETCLRFORE
 0001:000664F4  _HB_FUN_GETCLRBACK
 0001:00066508  _HB_FUN_RADGRDEFCO
 0001:0006651C  _HB_FUN_RADITDEFCO
 0001:00066530  _HB_FUN_LISTBDEFCO
 0001:00066544  _HB_FUN_COMBODEFCO
 0001:00066558  _HB_FUN_CHECKDEFCO
 0001:0006656C  _HB_FUN_BUTTNDEFCO
 0001:00066580  _HB_FUN_MENUDEFCOL
 0001:00066594  _HB_FUN_APPLYDEFAU
 0001:000665A8  C457_3
 0001:000665A8  C457_0
 0001:000665E0  _HB_FUN_CSTR
 0001:000665F4  _HB_FUN_CSTRTOVAL
 0001:00066608  _HB_FUN_STRINGTOLITERAL
 0001:0006661C  _HB_FUN_VALTOPRG
 0001:00066630  _HB_FUN_VALTOPRGEXP
 0001:00066644  _HB_FUN_PRGEXPTOVAL
 0001:00066658  _HB_FUN_VALTOARRAY
 0001:0006666C  _HB_FUN_VALTOBLOCK
 0001:00066680  _HB_FUN_VALTOCHARACTER
 0001:00066694  _HB_FUN_VALTODATE
 0001:000666A8  _HB_FUN_VALTOHASH
 0001:000666BC  _HB_FUN_VALTOLOGICAL
 0001:000666D0  _HB_FUN_VALTONUMBER
 0001:000666E4  _HB_FUN_VALTOOBJECT
 0001:000666F8  _HB_FUN_VALTOTYPE
 0001:0006670C  C477_0
 0001:0006670C  C477_3
 0001:00066744  _HB_FUN_ERRORSYS
 0001:000667D0  PRGUnhandledExceptionFilter
 0001:000668CC  _HB_FUN_SETERRORMODE
 0001:000668EC  _HB_FUN_SETUNHANDLEDEXCEPTIONFILTER
 0001:00066918  C481_0
 0001:00066918  C481_3
 0001:00066950  _HB_FUN___GETLISTSETACTIVE
 0001:00066964  _HB_FUN___GETLISTACTIVE
 0001:00066978  _HB_FUN___GETLISTLAST
 0001:000669A0  C483_3
 0001:000669A0  C483_0
 0001:000669D8  _HB_FUN_READMODAL
 0001:000669EC  _HB_FUN_GETREADER
 0001:00066A00  _HB_FUN_GETACTIVE
 0001:00066A14  _HB_FUN_GETDOSETKEY
 0001:00066A28  _HB_FUN_GETAPPLYKEY
 0001:00066A3C  _HB_FUN_GETPREVALIDATE
 0001:00066A50  _HB_FUN_GETPOSTVALIDATE
 0001:00066A64  _HB_FUN_READUPDATED
 0001:00066A78  _HB_FUN_UPDATED
 0001:00066A8C  _HB_FUN_READKILL
 0001:00066AA0  _HB_FUN___KILLREAD
 0001:00066AB4  _HB_FUN___SETFORMAT
 0001:00066AC8  _HB_FUN_READFORMAT
 0001:00066ADC  _HB_FUN_RANGECHECK
 0001:00066AF0  _HB_FUN_GUIREADER
 0001:00066B04  _HB_FUN_GUIAPPLYKEY
 0001:00066B18  _HB_FUN_GUIGETPREVALIDATE
 0001:00066B2C  _HB_FUN_GUIGETPOSTVALIDATE
 0001:00066B40  _HB_FUN_TBREADER
 0001:00066B54  _HB_FUN_TBAPPLYKEY
 0001:00066B68  _HB_FUN_HITTEST
 0001:00066B7C  _HB_FUN_ACCELERATOR
 0001:00066BA4  C499_3
 0001:00066BA4  C499_0
 0001:00066BDC  _HB_FUN_MEMVARBLOCK
 0001:00066BF0  C503_0
 0001:00066BF0  C503_3
 0001:00066C28  _HB_FUN_MSSGLINE
 0001:00066C8C  _HB_FUN_GETMSSGLINE
 0001:00066CB4  _HB_FUN_MENUMSSGLINE
 0001:00066CF0  C505_0
 0001:00066CF0  C505_3
 0001:00066D28  _HB_FUN___OBJHASDATA
 0001:00066D3C  _HB_FUN___OBJHASMETHOD
 0001:00066D50  _HB_FUN___OBJGETMSGLIST
 0001:00066D64  _HB_FUN___OBJGETMSGFULLLIST
 0001:00066D78  _HB_FUN___OBJGETMETHODLIST
 0001:00066D8C  _HB_FUN___OBJGETVALUELIST
 0001:00066DA0  _HB_FUN___OBJGETVALUEFULLLIST
 0001:00066DB4  _HB_FUN___OBJGETVALUEDIFF
 0001:00066DC8  _HB_FUN___OBJGETDERIVEDDIFF
 0001:00066DDC  _HB_FUN___OBJSETVALUELIST
 0001:00066DF0  _HB_FUN___OBJADDMETHOD
 0001:00066E04  _HB_FUN___OBJADDINLINE
 0001:00066E18  _HB_FUN___OBJADDDATA
 0001:00066E2C  _HB_FUN___OBJADDACCESSASSIGN
 0001:00066E40  _HB_FUN___OBJMODMETHOD
 0001:00066E54  _HB_FUN___OBJMODINLINE
 0001:00066E68  _HB_FUN___OBJDELMETHOD
 0001:00066E7C  _HB_FUN___OBJDELINLINE
 0001:00066E90  _HB_FUN___OBJSETMETHOD
 0001:00066EA4  _HB_FUN___OBJDELDATA
 0001:00066EB8  _HB_FUN___OBJDERIVEDFROM
 0001:00066ECC  C537_3
 0001:00066ECC  C537_0
 0001:000670AC  _HB_FUN_TBROWSE
 0001:000674BC  _HB_FUN_TBMOUSE
 0001:00067534  _HB_FUN_TBROWSENEW
 0001:0006755C  C539_0
 0001:0006755C  C539_3
 0001:00067594  _HB_FUN_HBCLASS
 0001:00067760  C545_3
 0001:00067760  C545_0
 0001:0006779C  _HB_FUN_GET
 0001:00067AE4  _HB_FUN___GUICOLOR
 0001:00067AF8  _HB_FUN_ISDEFCOLOR
 0001:00067B34  C547_3
 0001:00067B34  C547_0
 0001:00067B6C  _HB_FUN_GETNEW
 0001:00067B80  _HB_FUN___GET
 0001:00067B94  _HB_FUN___GETA
 0001:00067BA8  C549_0
 0001:00067BA8  C549_3
 0001:00067BE4  _HB_FUN_HBGETLIST
 0001:00067E00  C555_0
 0001:00067E00  C555_3
 0001:00067E38  _HB_FUN_HBOBJECT
 0001:00067EB0  _HB_FUN_TASSOCIATIVEARRAY
 0001:00067EC4  _HB_FUN_HASHENTRY
 0001:00067F00  _HB_FUN_HASHADDMEMBER
 0001:00067FA4  C559_3
 0001:00067FA4  C559_0
 0001:00067FDC  _HB_FUN_TRACELOG
 0001:00068004  C567_3
 0001:00068004  C567_0
 0001:0006803C  _HB_FUN_SCALAROBJECT
 0001:0006808C  _HB_FUN__ARRAY
 0001:00068140  _HB_FUN__HASH
 0001:000681A4  _HB_FUN__BLOCK
 0001:000681B8  _HB_FUN__CHARACTER
 0001:000681CC  _HB_FUN__DATE
 0001:000681E0  _HB_FUN__LOGICAL
 0001:000681F4  _HB_FUN__NIL
 0001:00068208  _HB_FUN__NUMERIC
 0001:0006821C  _HB_FUN__POINTER
 0001:00068230  _HB_FUN_UNREF
 0001:00068274  C623_0
 0001:00068280  _hb_macro_yyparse
 0001:0006AC5C  _hb_macroYYParse
 0001:0006ACA4  _hb_macro_yyerror
 0001:0006ACAC  C625_0
 0001:0006ACAC  _hb_compExprDelete
 0001:0006ACDC  _hb_compExprFree
 0001:0006ACF4  _hb_compExprErrorType
 0001:0006AD2C  _hb_compExprCBVarAdd
 0001:0006ADBC  _hb_compExprNewIIF
 0001:0006ADC8  _hb_compExprNewFunCall
 0001:0006AE2C  _hb_compExprNewFunName
 0001:0006AE44  _hb_compExprNewNamespaceFunRef
 0001:0006AE64  _hb_compExprNewNamespaceFunName
 0001:0006AE7C  _hb_compExprNewArrayAt
 0001:0006AEA0  _hb_compExprSetOperand
 0001:0006AF3C  _hb_compExprGenStatement
 0001:0006AF7C  _hb_compExprGenPush
 0001:0006AFBC  _hb_compExprGenPop
 0001:0006AFDC  _hb_compExprCBVarDel
 0001:0006B008  C627_0
 0001:00070D88  C629_0
 0001:00070D88  _hb_compExprDelOperator
 0001:00070DB8  _hb_compExprPushOperEq
 0001:00070F94  _hb_compExprUseOperEq
 0001:00071190  _hb_compExprPushPreOp
 0001:00071314  _hb_compExprPushPostOp
 0001:000713A4  _hb_compExprUsePreOp
 0001:00071418  _hb_compExprUseAliasMacro
 0001:00071540  _hb_compExprReduceList
 0001:00071584  _hb_compExprCheckMacroVar
 0001:000715DC  _hb_compExprReducePlusStrings
 0001:0007163C  C631_0
 0001:00071BA8  _hb_compFlexNew
 0001:00071BCC  _hb_compFlexDelete
 0001:00071C40  _hb_macro_yylex
 0001:00071E38  _SimpLex_GetNextToken
 0001:00072CC0  _SimpLex_CheckToken
 0001:00073068  _SimpLex_CheckWords
 0001:00073698  _yy_bytes_buffer
 0001:00073994  _cleansPair
 0001:000739A8  C645_0
 0001:000739A8  _hb_fopen
 0001:000739E8  _hb_fsAddSearchPath
 0001:000739E8  C647_0
 0001:00073A70  _hb_fsFreeSearchPath
 0001:00073AA0  _hb_fsFNameSplit
 0001:00073BC8  _hb_fsFNameMerge
 0001:00073CCC  _hb_fsNameExists
 0001:00073D18  _hb_fsFileExists
 0001:00073D68  _hb_fsDirExists
 0001:00073DB8  _hb_fsMaxFilesError
 0001:00073DC8  _hb_getenv
 0001:00073DC8  C649_0
 0001:00073DFC  _hb_setenv
 0001:00073EC0  C653_0
 0001:00073EC0  _dv_memcpy
 0001:0007448C  C655_0
 0001:0007448C  _hb_strAt
 0001:000744E4  _hb_strupr
 0001:00074514  _hb_strlow
 0001:00074544  _hb_strdup
 0001:00074574  _hb_strndup
 0001:000745BC  _hb_strnlen
 0001:000745E0  _hb_strduptrim
 0001:00074630  _hb_strlentrim
 0001:00074660  _hb_stricmp
 0001:000746C4  _hb_symcmp
 0001:0007472C  _hb_strnicmp
 0001:000747A4  _hb_xstrcat
 0001:000747E8  _hb_xstrcpy
 0001:000748AC  _hb_numRound
 0001:0007499C  _hb_numInt
 0001:000749D4  _hb_numDecConv
 0001:00074A34  _hb_numExpConv
 0001:0007506C  _hb_compStrToNum
 0001:00075098  _hb_compStrToNumErr
 0001:000750C4  _hb_valStrnToNum
 0001:000750F0  _hb_strToNum
 0001:0007511C  _hb_strnToNum
 0001:00075144  _hb_strVal
 0001:00075188  _hb_strValInt
 0001:000751D8  _hb_numToStr
 0001:000752A0  _hb_dblToStr
 0001:000755F4  _hb_strncpy
 0001:00075620  _hb_strncat
 0001:0007565C  _hb_strncpyLower
 0001:000756A0  _hb_strncpyUpper
 0001:000756E4  _hb_strncpyUpperTrim
 0001:00075758  _hb_strncpyTrim
 0001:000757B4  _hb_strRemEscSeq
 0001:00075940  _hb_stripOutComments
 0001:00075A48  _hb_strerror
 0001:00075A58  _hb_strtohex
 0001:00075AAC  _hb_strAtI
 0001:00075B2C  C657_0
 0001:00076514  _hb_printf_params
 0001:00076808  _hb_vsnprintf
 0001:000775B0  _hb_snprintf
 0001:000775D0  C659_0
 0001:000775D0  _hb_tracestate
 0001:000775F0  _hb_tracelevel
 0001:00077610  _hb_tr_level
 0001:00077704  _hb_tr_trace
 0001:000777F8  _hb_verCPU
 0001:000777F8  C661_0
 0001:0007784C  _hb_verHostCPU
 0001:00077864  _hb_verHostBitWidth
 0001:0007787C  _hb_verPlatformMacro
 0001:00077884  _hb_verPlatform
 0001:00077B30  _hb_iswinnt
 0001:00077B78  _hb_iswince
 0001:00077B7C  _hb_verCompiler
 0001:00077C58  _hb_verHarbour
 0001:00077C88  _hb_verPCode
 0001:00077CC8  _hb_verBuildInfo
 0001:00078810  _hb_builddate
 0001:00078848  _hb_credits
 0001:00078850  C663_0
 0001:00078850  _hb_compExprNew
 0001:00078878  _hb_compExprClear
 0001:0007888C  _hb_compExprClone
 0001:00078898  _hb_compExprDescription
 0001:000788B8  _hb_compExprType
 0001:000788C4  _hb_compExprNewExtBlock
 0001:000788DC  _hb_compExprNewEmpty
 0001:000788E8  _hb_compExprNewDouble
 0001:00078918  _hb_compExprNewLong
 0001:00078944  _hb_compExprNewDate
 0001:00078984  _hb_compExprNewDateTime
 0001:00078B48  _hb_compExprNewDateTimeVal
 0001:00078B70  _hb_compExprNewString
 0001:00078B94  _hb_compExprNewCodeBlock
 0001:00078BAC  _hb_compExprNewLogical
 0001:00078BC4  _hb_compExprNewNil
 0001:00078BD4  _hb_compExprNewSelf
 0001:00078BE4  _hb_compExprNewVarRef
 0001:00078C04  _hb_compExprNewMemVarRef
 0001:00078C24  _hb_compExprNewFunRef
 0001:00078C44  _hb_compExprNewArray
 0001:00078C98  _hb_compExprNewMacro
 0001:00078CF0  _hb_compExprNewAliasVar
 0001:00078D30  _hb_compExprNewAliasExpr
 0001:00078D60  _hb_compExprNewSend
 0001:00078D88  _hb_compExprNewSendExp
 0001:00078DD8  _hb_compExprNewWithSend
 0001:00078DFC  _hb_compExprNewWithSendExp
 0001:00078E48  _hb_compExprNewMethodCall
 0001:00078E58  _hb_compExprNewWithMethodCall
 0001:00078E68  _hb_compExprNewList
 0001:00078E7C  _hb_compExprNewArgList
 0001:00078E90  _hb_compExprAddListExpr
 0001:00078EB8  _hb_compExprNewVar
 0001:00078ED0  _hb_compExprNewRTVar
 0001:00078EF4  _hb_compExprNewAlias
 0001:00078F0C  _hb_compExprNewEqual
 0001:00078F24  _hb_compExprNewPlus
 0001:00078F3C  _hb_compExprNewMinus
 0001:00078F54  _hb_compExprNewMult
 0001:00078F6C  _hb_compExprNewDiv
 0001:00078F84  _hb_compExprNewMod
 0001:00078F9C  _hb_compExprNewPower
 0001:00078FB4  _hb_compExprNewBitAnd
 0001:00078FCC  _hb_compExprNewBitOr
 0001:00078FE4  _hb_compExprNewBitXOr
 0001:00078FFC  _hb_compExprNewBitShiftR
 0001:00079014  _hb_compExprNewBitShiftL
 0001:0007902C  _hb_compExprNewPostInc
 0001:00079044  _hb_compExprNewPostDec
 0001:0007905C  _hb_compExprNewPreInc
 0001:00079074  _hb_compExprNewPreDec
 0001:0007908C  _hb_compExprNewPlusEq
 0001:000790A4  _hb_compExprNewMinusEq
 0001:000790BC  _hb_compExprNewMultEq
 0001:000790D4  _hb_compExprNewDivEq
 0001:000790EC  _hb_compExprNewModEq
 0001:00079104  _hb_compExprNewExpEq
 0001:0007911C  _hb_compExprNewAnd
 0001:00079134  _hb_compExprNewOr
 0001:0007914C  _hb_compExprNewMatch
 0001:00079164  _hb_compExprNewLike
 0001:0007917C  _hb_compExprNewNot
 0001:000791B0  _hb_compExprNewEQ
 0001:000791C8  _hb_compExprNewLT
 0001:000791E0  _hb_compExprNewGT
 0001:000791F8  _hb_compExprNewLE
 0001:00079210  _hb_compExprNewGE
 0001:00079228  _hb_compExprNewNE
 0001:00079240  _hb_compExprNewIN
 0001:00079258  _hb_compExprNewNegate
 0001:00079318  _hb_compExprAssign
 0001:00079330  _hb_compExprListLen
 0001:0007936C  C665_0
 0001:0007936C  _hb_compExprReduceMod
 0001:00079404  _hb_compExprReduceDiv
 0001:000795A4  _hb_compExprReduceMult
 0001:00079724  _hb_compExprReduceMinus
 0001:000798A0  _hb_compExprReducePlus
 0001:00079A6C  _hb_compExprReduceIN
 0001:00079AF0  _hb_compExprReduceNE
 0001:00079C80  _hb_compExprReduceGE
 0001:00079DB0  _hb_compExprReduceLE
 0001:00079EE0  _hb_compExprReduceGT
 0001:0007A010  _hb_compExprReduceLT
 0001:0007A140  _hb_compExprReduceEQ
 0001:0007A314  _hb_compExprReduceAnd
 0001:0007A44C  _hb_compExprReduceOr
 0001:0007A588  _hb_compExprReduceBitOp
 0001:0007A6D4  _hb_compExprReduceIIF
 0001:0007A790  _hb_compExprListStrip
 0001:0007A808  _hb_compExprListStripSingle
 0001:0007A858  _hb_compExprReduceUPPER
 0001:0007A9B4  _hb_compReservedName
 0001:0007A9B4  C667_0
 0001:0007AA14  _hb_dateEncode
 0001:0007AA14  C669_0
 0001:0007AB10  _hb_dateDecode
 0001:0007AC04  _hb_dateStrPut
 0001:0007ACE4  _hb_dateStrGet
 0001:0007AD68  _hb_dateDecStr
 0001:0007ADC0  _hb_dateEncStr
 0001:0007ADF8  _hb_dateFormat
 0001:0007B128  _hb_dateJulianDOW
 0001:0007B14C  _hb_timeFormat
 0001:0007B5D0  _hb_datetimeFormat
 0001:0007B638  _hb_dateDOW
 0001:0007B6A0  _hb_dateToday
 0001:0007B6D0  _hb_dateTimeStr
 0001:0007B708  _hb_dbaselockEncode
 0001:0007B754  _hb_timeStampEncode
 0001:0007B7B8  _hb_timeStampDecode
 0001:0007B84C  _hb_timeStampStr
 0001:0007B8A0  _hb_dateTimeStampStr
 0001:0007B918  _hb_dateTimeStampStrGet
 0001:0007BAC4  _hb_dateTime
 0001:0007BB10  _hb_timeEncodeSec
 0001:0007BB90  _hb_timeEncode
 0001:0007BC28  _hb_timeDecode
 0001:0007BCC4  _hb_timeDecodeSec
 0001:0007BD10  _hb_timeStrGet
 0001:0007BE2C  _hb_datetimeEncode
 0001:0007BF3C  _hb_datetimeDecode
 0001:0007BF74  _hb_timeEncStr
 0001:0007C00C  _hb_timeDecStr
 0001:0007C058  _hb_datetimeEncStr
 0001:0007C0A4  _hb_datetimeDecStr
 0001:0007C0D0  _hb_datetimePack
 0001:0007C0E8  _hb_datetimePackInSec
 0001:0007C118  _hb_datetimeUnpack
 0001:0007C170  _hb_timeStampUnpackDT
 0001:0007C1D8  _hb_comp_datetimeEncStr
 0001:0007C208  _hb_comp_datetimeDecStr
 0001:0007C23C  _hb_comp_datetimeEncode
 0001:0007C274  _hb_timeStampGetLocal
 0001:0007C2C8  _hb_timeStampGet
 0001:0007C330  C671_0
 0001:0007C330  _hb_mbtowccpy
 0001:0007C350  _hb_mbtowcset
 0001:0007C370  _hb_mbtowc
 0001:0007C3B4  _hb_wctomb
 0001:0007C3FC  _hb_mbntowc
 0001:0007C444  _hb_wcntomb
 0001:0007C490  _hb_wctombget
 0001:0007C4B4  _HB_FUN_HB_LANG_EN
 0001:0007C4B4  C695_0
 0001:0007C4B8  C695_2
 0001:0007C4C4  C787_0
 0001:0007C4C4  _HB_FUN_AFIELDS
 0001:0007C734  _HB_FUN_ALIAS
 0001:0007C784  _HB_FUN_DBEVAL
 0001:0007C9A4  _HB_FUN_DBF
 0001:0007C9E8  _HB_FUN_BOF
 0001:0007CA24  _HB_FUN_DBAPPEND
 0001:0007CAA0  _HB_FUN_DBCLEARFILTER
 0001:0007CAC8  _HB_FUN_DBCLOSEALL
 0001:0007CAD0  _HB_FUN_DBCLOSEAREA
 0001:0007CAD8  _HB_FUN_DBCOMMIT
 0001:0007CB00  _HB_FUN_DBCOMMITALL
 0001:0007CB08  _HB_FUN_DBCREATE
 0001:0007CCB0  _HB_FUN_HB_DBCREATETEMP
 0001:0007CDE4  _HB_FUN___DBOPENSDF
 0001:0007CFB4  _HB_FUN_DBDELETE
 0001:0007CFDC  _HB_FUN_DBFILTER
 0001:0007D024  _HB_FUN_DBGOBOTTOM
 0001:0007D04C  _HB_FUN_DBGOTO
 0001:0007D0A0  _HB_FUN_DBGOTOP
 0001:0007D0C8  _HB_FUN___DBLOCATE
 0001:0007D198  _HB_FUN___DBSETLOCATE
 0001:0007D1E4  _HB_FUN___DBCONTINUE
 0001:0007D210  _HB_FUN___DBPACK
 0001:0007D2DC  _HB_FUN_DBRECALL
 0001:0007D304  _HB_FUN_DBRLOCK
 0001:0007D3AC  _HB_FUN_DBRLOCKLIST
 0001:0007D3F4  _HB_FUN_DBRUNLOCK
 0001:0007D430  _HB_FUN_DBSEEK
 0001:0007D53C  _HB_FUN_DBSELECTAREA
 0001:0007D584  _HB_FUN___DBSETFOUND
 0001:0007D5B4  _HB_FUN_DBSETFILTER
 0001:0007D664  _HB_FUN_DBSKIP
 0001:0007D6B0  _HB_FUN_DBSTRUCT
 0001:0007D6DC  _HB_FUN_DBTABLEEXT
 0001:0007D758  _HB_FUN_DBUNLOCK
 0001:0007D784  _HB_FUN_DBUNLOCKALL
 0001:0007D78C  _HB_FUN_DBUSEAREA
 0001:0007D830  _HB_FUN___DBZAP
 0001:0007D858  _HB_FUN_ISMARKED
 0001:0007D8A8  _HB_FUN_LKSYS
 0001:0007D90C  _HB_FUN_DELETED
 0001:0007D948  _HB_FUN_EOF
 0001:0007D984  _HB_FUN_FCOUNT
 0001:0007D9B4  _HB_FUN_FIELDGET
 0001:0007D9F0  _HB_FUN_FIELDNAME
 0001:0007DA70  _HB_FUN_FIELDPOS
 0001:0007DAC0  _HB_FUN_FIELDPUT
 0001:0007DB14  _HB_FUN_FLOCK
 0001:0007DB7C  _HB_FUN_FOUND
 0001:0007DBB8  _HB_FUN_HEADER
 0001:0007DBFC  _HB_FUN_INDEXORD
 0001:0007DC78  _HB_FUN_LASTREC
 0001:0007DCA8  _HB_FUN_LOCK
 0001:0007DD10  _HB_FUN_LUPDATE
 0001:0007DD54  _HB_FUN_NETERR
 0001:0007DD98  _HB_FUN_ORDBAGEXT
 0001:0007DE34  _HB_FUN_ORDBAGNAME
 0001:0007DF08  _HB_FUN_ORDCONDSET
 0001:0007E1BC  _HB_FUN_ORDCREATE
 0001:0007E318  _HB_FUN_ORDBAGCLEAR
 0001:0007E3A4  _HB_FUN_ORDDESTROY
 0001:0007E444  _HB_FUN_ORDFOR
 0001:0007E538  _HB_FUN_ORDKEY
 0001:0007E620  _HB_FUN_ORDLISTADD
 0001:0007E734  _HB_FUN_ORDLISTCLEAR
 0001:0007E75C  _HB_FUN_ORDLISTREBUILD
 0001:0007E784  _HB_FUN_ORDNAME
 0001:0007E864  _HB_FUN_ORDNUMBER
 0001:0007E95C  _HB_FUN_ORDSETFOCUS
 0001:0007E9FC  _HB_FUN_RDDLIST
 0001:0007EA14  _HB_FUN_RDDNAME
 0001:0007EA58  _HB_FUN_RDDREGISTER
 0001:0007EAC4  _HB_FUN_RECCOUNT
 0001:0007EACC  _HB_FUN_RECNO
 0001:0007EB00  _HB_FUN_RECSIZE
 0001:0007EB44  _HB_FUN_RLOCK
 0001:0007EBAC  _HB_FUN_SELECT
 0001:0007EC10  _HB_FUN_USED
 0001:0007EC34  _HB_FUN_RDDSETDEFAULT
 0001:0007EC80  _HB_FUN_DBSETDRIVER
 0001:0007ECCC  _HB_FUN_ORDSCOPE
 0001:0007EDF4  _HB_FUN_DBRELATION
 0001:0007EE4C  _HB_FUN_DBRSELECT
 0001:0007EE8C  _HB_FUN_DBCLEARRELATION
 0001:0007EEA0  _HB_FUN_DBSETRELATION
 0001:0007F02C  _HB_FUN___DBARRANGE
 0001:0007F3C4  _HB_FUN___DBTRANS
 0001:0007F590  _HB_FUN___DBAPP
 0001:0007F69C  _HB_FUN___DBCOPY
 0001:0007F808  _HB_FUN_HB_RDDGETTEMPALIAS
 0001:0007F82C  _HB_FUN___RDDGETTEMPALIAS
 0001:0007F834  _HB_FUN_HB_RDDINFO
 0001:0007F8C8  _HB_FUN_HB_DBDROP
 0001:0007F968  _HB_FUN_HB_DBEXISTS
 0001:0007FA08  _HB_FUN_HB_DBRENAME
 0001:0007FAD8  _HB_FUN_HB_FIELDLEN
 0001:0007FB38  _HB_FUN_HB_FIELDDEC
 0001:0007FB98  _HB_FUN_HB_FIELDTYPE
 0001:0007FBF8  _HB_FUN_HB_FIELDFLAG
 0001:0007FC58  _HB_FUN_HB_FIELDSTEP
 0001:0007FCB8  _HB_FUN_ORDKEYCOUNT
 0001:0007FCB8  C789_0
 0001:0007FD5C  _HB_FUN_ORDKEYNO
 0001:0007FE04  _HB_FUN_ORDKEYGOTO
 0001:0007FE78  _HB_FUN_ORDKEYRELPOS
 0001:0007FEF0  _HB_FUN_ORDFINDREC
 0001:0007FF8C  _HB_FUN_ORDSKIPRAW
 0001:0007FFD8  _HB_FUN_ORDSKIPUNIQUE
 0001:0008004C  _HB_FUN_ORDKEYVAL
 0001:000800AC  _HB_FUN_ORDKEYADD
 0001:00080164  _HB_FUN_ORDKEYDEL
 0001:0008021C  _HB_FUN_ORDDESCEND
 0001:000802D4  _HB_FUN_ORDISUNIQUE
 0001:0008038C  _HB_FUN_ORDCUSTOM
 0001:00080444  _HB_FUN_ORDCOUNT
 0001:000804BC  _HB_FUN_DBINFO
 0001:0008053C  _HB_FUN_DBORDERINFO
 0001:00080630  _HB_FUN_DBFIELDINFO
 0001:000806D8  _HB_FUN_DBRECORDINFO
 0001:00080768  _HB_FUN_DBFILEGET
 0001:00080844  _HB_FUN_BLOBEXPORT
 0001:0008084C  _HB_FUN_DBFILEPUT
 0001:00080914  _HB_FUN_BLOBIMPORT
 0001:0008091C  C805_0
 0001:00082A08  _hb_rddGetNode
 0001:00082A2C  _hb_rddList
 0001:00082AC8  _hb_rddFindNode
 0001:00082B2C  _hb_rddShutDown
 0001:00082BA0  _hb_rddRegister
 0001:00082D14  _hb_rddInheritEx
 0001:00082DF0  _hb_rddInherit
 0001:00082EB4  _HB_FUN___RDDPREALLOCATE
 0001:00082F14  __hb_rddWorkAreaForceLink
 0001:00082F1C  C807_0
 0001:00083184  _hb_rddSelectFirstAvailable
 0001:00083200  _hb_rddInsertAreaNode
 0001:000832A8  _hb_rddReleaseCurrentArea
 0001:00083300  _hb_rddWaInit
 0001:00083368  _hb_rddChangeSetWorkareasShared
 0001:00083384  _hb_rddWaShutDown
 0001:00083394  _hb_rddCloseAll
 0001:000834C8  _hb_rddFlushAll
 0001:0008352C  _hb_rddUnLockAll
 0001:00083594  _hb_rddIterateWorkAreas
 0001:000835E0  _hb_rddGetNetErr
 0001:000835E8  _hb_rddSetNetErr
 0001:000835F8  _hb_rddDefaultDrv
 0001:000836A0  _hb_rddGetWorkAreaPointer
 0001:000836E0  _hb_rddGetCurrentWorkAreaPointer
 0001:000836EC  _hb_rddGetCurrentWorkAreaNumber
 0001:000836F8  _hb_rddSelectWorkAreaNumber
 0001:00083788  C809_0
 0001:00083788  _hb_rddVerifyAliasName
 0001:000837F4  _hb_rddNewAreaNode
 0001:000838D0  _hb_rddGetTempAlias
 0001:0008391C  _hb_rddGetAliasName
 0001:0008392C  _hb_rddAllocWorkAreaAlias
 0001:000839C8  _hb_rddFieldIndex
 0001:00083A50  _hb_rddFieldExpIndex
 0001:00083BC8  _hb_rddGetAliasNumber
 0001:00083C58  _hb_rddSelectWorkAreaSymbol
 0001:00083D38  _hb_rddSelectWorkAreaAlias
 0001:00083DD0  _hb_rddFieldGet
 0001:00083E18  _hb_rddFieldPut
 0001:00083E60  _hb_rddGetFieldValue
 0001:00083EE4  _hb_rddPutFieldValue
 0001:00083F68  _hb_rddOpenTable
 0001:000840B8  _hb_rddCreateTable
 0001:0008420C  _hb_rddCreateTableTemp
 0001:00084398  _hb_tblStructure
 0001:00084454  _hb_dbTransStruct
 0001:00084914  _hb_rddTransRecords
 0001:00084C18  _hb_rddCloseAllParentRelations
 0001:00084C3C  C811_0
 0001:00085DE8  _hb_dbfGetEGcode
 0001:00085EB8  _hb_dbfGetMemoBlock
 0001:00085F4C  _hb_dbfPutMemoBlock
 0001:00085FF0  _hb_dbfGetMemoData
 0001:000861BC  _hb_dbfSetMemoData
 0001:00086310  _hb_dbfLockIdxGetData
 0001:000863F8  _hb_dbfLockIdxFile
 0001:0008AF9C  _hb_dbfTranslateRec
 0001:0008D068  _HB_FUN__DBF
 0001:0008D06C  _HB_FUN_DBF_GETFUNCTABLE
 0001:0008D0F8  C811_3
 0001:0008D130  C811_4
 0001:0008D140  C845_0
 0001:0008D140  _hb_dbQSortInit
 0001:0008D1E4  _hb_dbQSortExit
 0001:0008D244  _hb_dbQSortAdvance
 0001:0008D70C  _hb_dbQSortComplete
 0001:0008D7EC  C857_3
 0001:0008D7EC  C857_0
 0001:0008D824  _HB_FUN_DBCREATEINDEX
 0001:0008D838  _HB_FUN_DBSETINDEX
 0001:0008D84C  _HB_FUN_DBCLEARINDEX
 0001:0008D860  _HB_FUN_DBREINDEX
 0001:0008D874  _HB_FUN_DBSETORDER
 0001:0008D888  _HB_FUN_INDEXEXT
 0001:0008D89C  _HB_FUN_INDEXKEY
 0001:0008D8B0  _HB_FUN_ORDSETRELATION
 0001:0008D8C4  C861_3
 0001:0008D8C4  C861_0
 0001:0008D8FC  _HB_FUN_RDDSYS
 0001:0008D910  C863_0
 0001:00098398  _HB_FUN_DBFNTX
 0001:0009839C  _HB_FUN_DBFNTX_GETFUNCTABLE
 0001:000984AC  C863_3
 0001:000984E4  C863_4
 0001:000984F4  C869_0
 0001:0009FA54  _HB_FUN_DBFDBT
 0001:0009FA58  _HB_FUN_DBFSMT
 0001:0009FA5C  _HB_FUN_DBFFPT
 0001:0009FA60  _HB_FUN_DBFBLOB
 0001:0009FAE4  _HB_FUN_DBFFPT_GETFUNCTABLE
 0001:0009FAF0  _HB_FUN_DBFBLOB_GETFUNCTABLE
 0001:0009FB50  C869_3
 0001:0009FB88  C869_4
 0001:0009FB98  C901_0
 0001:000A0E20  __pcre_find_bracket
 0001:000A7034  _pcre_compile
 0001:000A7058  _pcre_compile2
 0001:000A7990  C907_0
 0001:000B2474  _pcre_exec
 0001:000B3238  C909_0
 0001:000B3238  _pcre_fullinfo
 0001:000B3498  C917_0
 0001:000B3498  __pcre_is_newline
 0001:000B3680  __pcre_was_newline
 0001:000B3880  __pcre_ord2utf
 0001:000B3880  C919_0
 0001:000B38D0  __pcre_valid_utf
 0001:000B38D0  C927_0
 0001:000B3D44  _pcre_version
 0001:000B3D44  C929_0
 0001:000B3D5C  C933_0
 0001:000B3D5C  __pcre_xclass
 0001:000B4170  _regerror
 0001:000B4170  C935_0
 0001:000B421C  _regfree
 0001:000B4230  _regcomp
 0001:000B42E8  _regexec
 0001:000B4534  _HB_PCREPOS_LIBRARY
 0001:000B4538  C943_0
 0001:000B45D0  _hb_sxEnCrypt
 0001:000B4678  _hb_sxDeCrypt
 0001:000B47D8  _HB_FUN_SX_ENCRYPT
 0001:000B4868  _HB_FUN_SX_DECRYPT
 0001:000B48F8  _hb_sxDtoP
 0001:000B48F8  C945_0
 0001:000B4950  _hb_sxPtoD
 0001:000B4994  _HB_FUN_SX_DTOP
 0001:000B49C0  _HB_FUN_SX_PTOD
 0001:000B49F0  ___org_deletea
 0001:000B49F0  operator delete[](void *)
 0001:000B49F0  C1475_0
 0001:000B4A18  operator delete(void *)
 0001:000B4A18  C1481_0
 0001:000B4A18  ___org_delete
 0001:000B4A48  C1489_0
 0001:000B4A50  std::terminate()
 0001:000B4A68  std::unexpected()
 0001:000B4A80  std::exception::~exception()
 0001:000B4AC0  std::exception::what() const
 0001:000B4ACC  __tpdsc__ std::exception
 0001:000B4B18  __tpdsc__ std::bad_cast
 0001:000B4B70  std::exception::exception()
 0001:000B4BA0  __tpdsc__ std::exception *
 0001:000B4BC0  std::bad_cast::~bad_cast()
 0001:000B4C04  DefaultRegisterAndUnregisterExpectedMemoryLeak
 0001:000B4C04  C1684_0
 0001:000B4C08  DefaultAllocMem
 0001:000B4C4C  ___CRTL_MEM_GetBorMemPtrs
 0001:000B4D4C  ___CRTL_MEM_CheckBorMem
 0001:000B4D50  _malloc
 0001:000B4D50  C1692_0
 0001:000B4D50  ___org_malloc
 0001:000B4D60  ___org_free
 0001:000B4D60  _free
 0001:000B4D70  C1696_0
 0001:000B4D70  ___CRTL_MEM_Revector
 0001:000B4E30  C1696_2
 0001:000B4E3C  __free_heaps
 0001:000B4E4C  ___CRTL_MEM_UseBorMM
 0001:000B4E4C  C1698_0
 0001:000B4E50  _FastMM_SetMemoryManager
 0001:000B4E50  C1730_0
 0001:000B4E68  _FastMM_IsMemoryManagerSet
 0001:000B4F60  _FastMM_AllocNewSequentialFeedMediumPool
 0001:000B4FEC  _FastMM_AllocateLargeBlock
 0001:000B504C  _FastMM_FreeLargeBlock
 0001:000B50E4  _FastMM_ReallocateLargeBlock
 0001:000B52D8  _FastMM_GetMemoryManagerState
 0001:000B5408  _FastMM_GetMemoryMap
 0001:000B54EC  _FastMM_GetHeapStatus
 0001:000B5630  _FastMM_GetMemBlockSize
 0001:000B5668  _FastMM_CanResizeInplace
 0001:000B5810  _FastMM_AttemptToUseSharedMemoryManager
 0001:000B5878  _FastMM_ShareMemoryManager
 0001:000B5934  _FastMM_GetMinimumBlockAlignment
 0001:000B593C  _FastMM_SetMinimumBlockAlignment
 0001:000B595C  _FastMM_InitializeMemoryManager
 0001:000B5B78  _FastMM_FinalizeMemoryManager
 0001:000B5C0C  C1730_3
 0001:000B5C14  C1732_0
 0001:000B5C14  _FastMM_LockCmpxchg
 0001:000B5C19  _FastMM_Move12
 0001:000B5C2A  _FastMM_Move20
 0001:000B5C47  _FastMM_Move28
 0001:000B5C70  _FastMM_Move36
 0001:000B5C8D  _FastMM_Move44
 0001:000B5CB0  _FastMM_Move52
 0001:000B5CD9  _FastMM_Move60
 0001:000B5D08  _FastMM_Move68
 0001:000B5D3D  _FastMM_MoveX16L4
 0001:000B5D6A  _FastMM_MoveX8L4
 0001:000B5D85  _FastMM_RemoveMediumFreeBlock
 0001:000B5DC3  _FastMM_InsertMediumBlockIntoBin
 0001:000B5E23  _FastMM_BinMediumSequentialFeedRemainder
 0001:000B5E8E  _FastMM_GetMem
 0001:000B6212  _FastMM_FreeMem
 0001:000B640A  _FastMM_ReallocMem
 0001:000B6724  _FastMM_AllocMem
 0001:000B6758  C1734_0
 0001:000B6758  __internal_free
 0001:000B676C  __internal_malloc
 0001:000B6784  __internal_allocmem
 0001:000B679C  __internal_free_heaps
 0001:000B67A4  ___org__expand
 0001:000B67A4  C1754_0
 0001:000B67A4  __expand
 0001:000B67C8  ___org__msize
 0001:000B67C8  __msize
 0001:000B67D8  __internal_realloc
 0001:000B680C  ___CRTL_VCL_Init
 0001:000B680C  C1756_0
 0001:000B6810  C1760_0
 0001:000B6810  ___CRTL_VCLLIB_Linkage
 0001:000B6814  _strdup
 0001:000B6814  ___org_strdup
 0001:000B6814  C1839_0
 0001:000B6848  C1841_0
 0001:000B68BC  ___org__strerror
 0001:000B68BC  __strerror
 0001:000B68D8  _strerror
 0001:000B68D8  ___org_strerror
 0001:000B68EC  ___org_strncpy
 0001:000B68EC  C1849_0
 0001:000B68EC  _strncpy
 0001:000B693C  ___org_strpbrk
 0001:000B693C  C1859_0
 0001:000B693C  _strpbrk
 0001:000B696C  ___org_strrchr
 0001:000B696C  _strrchr
 0001:000B696C  C1861_0
 0001:000B6998  ___org_strstr
 0001:000B6998  C1869_0
 0001:000B6998  _strstr
 0001:000B69F8  _wcscpy
 0001:000B69F8  C1879_0
 0001:000B6A38  _wcslen
 0001:000B6A38  C1893_0
 0001:000B6A50  C1939_0
 0001:000B6A50  __stpcpy
 0001:000B6A88  _memchr
 0001:000B6A88  ___org_memchr
 0001:000B6A88  C1943_0
 0001:000B6AE0  _memcmp
 0001:000B6AE0  C1945_0
 0001:000B6AE0  ___org_memcmp
 0001:000B6B4C  _memcpy
 0001:000B6B4C  ___org_memcpy
 0001:000B6B4C  C1947_0
 0001:000B6B64  C1949_0
 0001:000B6B64  _internal_memmove
 0001:000B6C65  _memmove
 0001:000B6C65  ___org_memmove
 0001:000B6C7C  C1951_0
 0001:000B6D17  _memset
 0001:000B6D17  ___org_memset
 0001:000B6D2D  __rtl_memset
 0001:000B6D2D  __rtl_memset_
 0001:000B6D30  ___org_strcat
 0001:000B6D30  C1965_0
 0001:000B6D30  _strcat
 0001:000B6D90  _strchr
 0001:000B6D90  C1967_0
 0001:000B6D90  ___org_strchr
 0001:000B6DE0  _strlen
 0001:000B6DE0  ___org_strlen
 0001:000B6DE0  C1973_0
 0001:000B6E3C  _strncat
 0001:000B6E3C  ___org_strncat
 0001:000B6E3C  C1975_0
 0001:000B6EB8  ___org_strncmp
 0001:000B6EB8  C1977_0
 0001:000B6EB8  _strncmp
 0001:000B6F18  C1993_0
 0001:000B6FB7  __wmemset_safe
 0001:000B6FD1  _wmemset
 0001:000B6FF5  __wmemset
 0001:000B6FF8  C1995_0
 0001:000B6FF8  ___access
 0001:000B7038  C1997_0
 0001:000B7038  ___close
 0001:000B709C  ___dup
 0001:000B709C  C1999_0
 0001:000B70B0  C2001_0
 0001:000B70B0  ___dup2
 0001:000B71A0  C2003_0
 0001:000B71A0  ___eof
 0001:000B7228  C2007_0
 0001:000B7228  ___isatty
 0001:000B7258  ___isatty_osfhandle
 0001:000B7270  ___lseek
 0001:000B7270  C2009_0
 0001:000B72E8  ___open
 0001:000B72E8  C2011_0
 0001:000B74FC  C2013_0
 0001:000B7568  ___read
 0001:000B7698  C2019_0
 0001:000B7698  ___write
 0001:000B77B4  C2021_0
 0001:000B77C8  __rtl_read
 0001:000B77C8  C2051_0
 0001:000B77C8  ___org__rtl_read
 0001:000B7824  __read
 0001:000B7824  ___org__read
 0001:000B7840  C2069_0
 0001:000B7840  ___org__rtl_write
 0001:000B7840  __rtl_write
 0001:000B7888  __write
 0001:000B7888  ___org__write
 0001:000B78A4  __allocbuf
 0001:000B78A4  C2071_0
 0001:000B7924  C2077_0
 0001:000B7924  ___org__chdrive
 0001:000B7924  __chdrive
 0001:000B7954  __getdrive
 0001:000B79C0  C2114_0
 0001:000B79C0  ___org_fclose
 0001:000B79C0  _fclose
 0001:000B7A50  _fflush
 0001:000B7A50  ___org_fflush
 0001:000B7A50  C2120_0
 0001:000B7AD0  C2139_0
 0001:000B7AD0  __flushout
 0001:000B7B2C  C2143_0
 0001:000B7B2C  __initfmode
 0001:000B7B3C  __initfileinfo
 0001:000B7B50  C2147_0
 0001:000B7C4C  ___openfp
 0001:000B7CFC  ___getfp
 0001:000B7D28  ___fopen_helper
 0001:000B7D54  ___org_fopen
 0001:000B7D54  _fopen
 0001:000B7D6C  ___org_fprintf
 0001:000B7D6C  _fprintf
 0001:000B7D6C  C2151_0
 0001:000B7D90  ___fputn
 0001:000B7D90  C2161_0
 0001:000B7E6C  C2185_0
 0001:000B7ED4  ___org_fseek
 0001:000B7ED4  _fseek
 0001:000B7F38  _ftell
 0001:000B7F38  ___org_ftell
 0001:000B7FB8  C2221_0
 0001:000B7FB8  __get_handle
 0001:000B7FF8  __dup_handle
 0001:000B8060  __free_handle
 0001:000B8118  __init_handles
 0001:000B8274  ___IOerror
 0001:000B8274  C2223_0
 0001:000B82C0  ___DOSerror
 0001:000B82E0  ___NTerror
 0001:000B82F4  C2227_0
 0001:000B8398  ___org__fgetc
 0001:000B8398  __fgetc
 0001:000B83B0  _fgetc
 0001:000B83B0  ___org_fgetc
 0001:000B849C  ___org_fputc
 0001:000B849C  _fputc
 0001:000B849C  C2235_0
 0001:000B85B8  ___mkname
 0001:000B85B8  C2243_0
 0001:000B8608  ___tmpnam
 0001:000B864C  ___org_printf
 0001:000B864C  C2251_0
 0001:000B864C  _printf
 0001:000B8670  ___org_setmode
 0001:000B8670  C2301_0
 0001:000B8670  _setmode
 0001:000B86E0  C2303_0
 0001:000B86E0  _setvbuf
 0001:000B86E0  ___org_setvbuf
 0001:000B8730  C2316_0
 0001:000B8758  ___org_sprintf
 0001:000B8758  _sprintf
 0001:000B8780  _vsprintf
 0001:000B8780  ___org_vsprintf
 0001:000B87A8  __init_streams
 0001:000B87A8  C2336_0
 0001:000B885C  C2336_1
 0001:000B885C  __exit_streams
 0001:000B88AC  __unlink
 0001:000B88AC  C2358_0
 0001:000B88C8  C2362_0
 0001:000B88C8  _vfprintf
 0001:000B88C8  ___org_vfprintf
 0001:000B88EC  C2378_0
 0001:000B89C0  ___vprinter
 0001:000B9384  __wunlink
 0001:000B9384  C2462_0
 0001:000B93A0  C2466_0
 0001:000B93A0  __xfclose
 0001:000B93D0  C2468_0
 0001:000B93D0  __xfflush
 0001:000B93F8  C2500_0
 0001:000B93F8  _access
 0001:000B93F8  ___org_access
 0001:000B9400  ___org_close
 0001:000B9400  _close
 0001:000B9400  C2504_0
 0001:000B9408  C2506_0
 0001:000B9408  _dup
 0001:000B9408  ___org_dup
 0001:000B9410  _remove
 0001:000B9410  C2528_0
 0001:000B9410  ___org_remove
 0001:000B9418  __wremove
 0001:000B9420  C2547_0
 0001:000B9420  __getLocaleNumericInfo
 0001:000B948C  _isalnum
 0001:000B948C  C2554_0
 0001:000B94A4  _isascii
 0001:000B94B8  _isalpha
 0001:000B94D0  _isblank
 0001:000B94E4  _iscntrl
 0001:000B94F8  _isdigit
 0001:000B950C  _isgraph
 0001:000B9524  _islower
 0001:000B9538  _isprint
 0001:000B9550  _ispunct
 0001:000B9564  _isspace
 0001:000B9578  _isupper
 0001:000B958C  _isxdigit
 0001:000B95A4  C2556_0
 0001:000B95A4  _iswalnum
 0001:000B95BC  _iswascii
 0001:000B95D0  _iswalpha
 0001:000B95E8  _iswblank
 0001:000B95FC  _iswcntrl
 0001:000B9610  _iswdigit
 0001:000B9624  _iswgraph
 0001:000B963C  _iswlower
 0001:000B9650  _iswprint
 0001:000B966C  _iswpunct
 0001:000B9680  _iswspace
 0001:000B9694  _iswupper
 0001:000B96A8  _iswxdigit
 0001:000B96C0  ___isctype
 0001:000B96C0  C2558_0
 0001:000B970C  ___isctypeEx
 0001:000B9760  ___iswctype
 0001:000B9760  C2560_0
 0001:000B97D0  ___iswctypeEx
 0001:000B9848  __ltolower
 0001:000B9848  C2598_0
 0001:000B98AC  __ltolower_lcid
 0001:000B9908  __ltoupper
 0001:000B9908  C2602_0
 0001:000B996C  __ltoupper_lcid
 0001:000B99C8  ___org_mblen
 0001:000B99C8  _mblen
 0001:000B99C8  C2606_0
 0001:000B9A44  ___org_mbtowc
 0001:000B9A44  _mbtowc
 0001:000B9B18  _mbtowc_cp
 0001:000B9BDC  __wctomb_quiet
 0001:000B9C40  ___org_wctomb
 0001:000B9C40  _wctomb
 0001:000B9CB8  _wctomb_cp
 0001:000B9D24  ___org_mbstowcs
 0001:000B9D24  _mbstowcs
 0001:000B9E98  ___org_wcstombs
 0001:000B9E98  _wcstombs
 0001:000BA04C  __llmul
 0001:000BA04C  C2660_0
 0001:000BA06F  __alldiv
 0001:000BA089  __lldiv
 0001:000BA101  __aulldiv
 0001:000BA11B  __lludiv
 0001:000BA164  __allrem
 0001:000BA17E  __llmod
 0001:000BA1F8  __aullrem
 0001:000BA212  __llumod
 0001:000BA260  __llshl
 0001:000BA27C  __llshr
 0001:000BA298  __llushr
 0001:000BA2B4  C2678_0
 0001:000BA2B4  __finite
 0001:000BA2D4  C2680_0
 0001:000BA2D4  __finitel
 0001:000BA2F4  __ftoul
 0001:000BA2F4  C2684_0
 0001:000BA320  __isnan
 0001:000BA320  C2688_0
 0001:000BA368  __isnanl
 0001:000BA368  C2690_0
 0001:000BA3B4  ___matherr
 0001:000BA3B4  C2696_0
 0001:000BA464  C2702_0
 0001:000BA464  __pow10
 0001:000BA5E8  C2725_0
 0001:000BA5E8  _atol
 0001:000BA5E8  ___org_atol
 0001:000BA650  _atoi
 0001:000BA650  ___org_atoi
 0001:000BA660  C2733_0
 0001:000BA660  _ceil
 0001:000BA660  ___org_ceil
 0001:000BA67C  C2737_0
 0001:000BA67C  __clear87
 0001:000BA690  C2751_0
 0001:000BA690  __control87
 0001:000BA6C0  C2753_0
 0001:000BA6C0  ___realcvt
 0001:000BA6C6  ___nextreal
 0001:000BA6CC  __scantod
 0001:000BA6D2  __scanrslt
 0001:000BA6D8  C2757_0
 0001:000BA6F0  C2759_0
 0001:000BA708  ___org_div
 0001:000BA708  ___org_ldiv
 0001:000BA708  C2763_0
 0001:000BA708  _ldiv
 0001:000BA708  _div
 0001:000BA720  _exp
 0001:000BA720  ___org_exp
 0001:000BA720  C2767_0
 0001:000BA78C  C2775_0
 0001:000BA78C  __f87_Exp2
 0001:000BA791  __f87_Exp10
 0001:000BA799  __f87_Exp
 0001:000BA860  __f87_Log2
 0001:000BA860  C2777_0
 0001:000BA864  __f87_Log10
 0001:000BA868  __f87_Log
 0001:000BA8A8  C2795_0
 0001:000BA8A8  _fmod
 0001:000BA8F8  __fpreset
 0001:000BA8F8  C2799_0
 0001:000BA910  __ftol
 0001:000BA910  C2805_0
 0001:000BA910  _ftol()
 0001:000BA940  C2807_0
 0001:000BA940  __fuildq
 0001:000BA970  __fuistq
 0001:000BA970  C2809_0
 0001:000BA994  C2811_0
 0001:000BA994  __fxam
 0001:000BA9A8  ___int64toa
 0001:000BA9A8  C2827_0
 0001:000BAA5C  ___ldtrunc
 0001:000BAA5C  C2837_0
 0001:000BAB78  C2843_0
 0001:000BAB78  _log
 0001:000BAB78  ___org_log
 0001:000BABE8  C2851_0
 0001:000BABE8  ___longtoa
 0001:000BAC5C  ___utoa
 0001:000BAC78  _itoa
 0001:000BAC78  C2859_0
 0001:000BAC78  ___org_itoa
 0001:000BACA8  _ultoa
 0001:000BACA8  ___org_ultoa
 0001:000BACC8  __ltoa
 0001:000BACF0  C2865_0
 0001:000BACF0  ___org__matherrl
 0001:000BACF0  __matherrl
 0001:000BAD20  __initmatherr
 0001:000BAD20  C2867_0
 0001:000BAD38  ___org_modf
 0001:000BAD38  _modf
 0001:000BAD38  C2873_0
 0001:000BAD68  _modfl
 0001:000BAD68  ___org_modfl
 0001:000BAD68  C2875_0
 0001:000BAD98  C2881_0
 0001:000BAD98  ___org_pow
 0001:000BAD98  _pow
 0001:000BAF74  C2889_0
 0001:000BAF74  __qdiv10
 0001:000BAF9C  __qmul10
 0001:000BAF9C  C2891_0
 0001:000BAFCC  _srand
 0001:000BAFCC  C2893_0
 0001:000BAFE8  C2893_2
 0001:000BAFF4  _rand
 0001:000BB010  __lrand
 0001:000BB050  C2895_0
 0001:000BB334  __cvt_init
 0001:000BB34C  C2897_0
 0001:000BB668  __cvt_initw
 0001:000BB680  __round
 0001:000BB680  C2902_0
 0001:000BB6AC  C2904_0
 0001:000BBB80  __scan_init
 0001:000BBB98  C2906_0
 0001:000BC078  __scan_initw
 0001:000BC090  _sqrt
 0001:000BC090  C2916_0
 0001:000BC090  ___org_sqrt
 0001:000BC0CC  C2958_0
 0001:000BC0CC  ___xcvt
 0001:000BC3A4  C2960_0
 0001:000BC3A4  ___xcvtw
 0001:000BC69C  __setmbcp
 0001:000BC69C  C2974_0
 0001:000BC7D4  __getmbcp
 0001:000BC7DC  C2974_3
 0001:000BC7DC  __initMBCSTable
 0001:000BC7EC  C2976_0
 0001:000BC7EC  __ismbcalpha
 0001:000BC82C  __ismbcdigit
 0001:000BC82C  C2980_0
 0001:000BC848  __ismbcspace
 0001:000BC848  C2998_0
 0001:000BC864  __mbsnbcpy
 0001:000BC864  C3036_0
 0001:000BC8B8  C3038_0
 0001:000BC8B8  __mbsnbicmp
 0001:000BC978  C3060_0
 0001:000BC978  __mbsrchr
 0001:000BC9D0  C3114_0
 0001:000BCA18  __assert
 0001:000BCA78  C3132_0
 0001:000BCAC8  __ErrorMessageHelper
 0001:000BCB34  C3134_0
 0001:000BCB34  ___errno
 0001:000BCB3C  C3136_0
 0001:000BCB98  __ErrorMessage
 0001:000BCCB4  ___ErrorMessage
 0001:000BCCC4  __ErrorExit
 0001:000BCCDC  C3148_0
 0001:000BCEE8  ___org_qsort
 0001:000BCEE8  _qsort
 0001:000BCF14  C3163_0
 0001:000BCF14  C3163_3
 0001:000BCF20  ___dbkFCallArgs
 0001:000BD11C  __internal_dbk_fcall_wrapper
 0001:000BD258  C3167_0
 0001:000BD258  __abort_notify
 0001:000BD26C  __do_abort
 0001:000BD280  __abort
 0001:000BD2F0  _abort
 0001:000BD300  C3169_0
 0001:000BD38C  ___atexit
 0001:000BD3CC  ___call_atexit_procs
 0001:000BD420  C3205_0
 0001:000BD424  ___exit
 0001:000BD468  _exit
 0001:000BD468  C3207_0
 0001:000BD484  __exit
 0001:000BD4A0  __cexit
 0001:000BD4B8  __c_exit
 0001:000BD4D0  C3209_0
 0001:000BD4D0  __getenv_nolock
 0001:000BD528  ___org_getenv
 0001:000BD528  _getenv
 0001:000BD538  C3217_0
 0001:000BD538  __init_wild_handlers
 0001:000BD554  C3219_0
 0001:000BD554  __argv_default_expand
 0001:000BD568  __wargv_default_expand
 0001:000BD568  C3221_0
 0001:000BD57C  C3227_0
 0001:000BD57C  __init_setargv_handlers
 0001:000BD5A4  __setargv
 0001:000BD5A4  C3233_3
 0001:000BD5A4  C3233_0
 0001:000BD62C  C3233_4
 0001:000BD62C  __exitargv
 0001:000BD710  C3235_0
 0001:000BD710  __handle_setargv
 0001:000BD868  __handle_exitargv
 0001:000BD934  __handle_wsetargv
 0001:000BD934  C3237_0
 0001:000BDAC8  __handle_wexitargv
 0001:000BDBA4  C3294_0
 0001:000BDBA4  C3294_2
 0001:000BDBDC  C3294_3
 0001:000BDBEC  C3306_0
 0001:000BDBEC  C3306_4
 0001:000BDC20  __expandblock
 0001:000BDD6C  C3306_3
 0001:000BDD8C  C3320_0
 0001:000BDFB4  _signal
 0001:000BE014  ___org_raise
 0001:000BE014  _raise
 0001:000BE088  C3335_0
 0001:000BE088  __terminate
 0001:000BE098  __init_exit_proc
 0001:000BE178  __cleanup
 0001:000BE1AC  C3339_0
 0001:000BE1AC  __startup
 0001:000BE318  ___CRTL_TLS_Alloc
 0001:000BE318  C3355_0
 0001:000BE320  ___CRTL_TLS_Free
 0001:000BE330  ___CRTL_TLS_GetValue
 0001:000BE340  ___CRTL_TLS_SetValue
 0001:000BE354  ___CRTL_TLS_InitThread
 0001:000BE35C  ___CRTL_TLS_ExitThread
 0001:000BE364  ___CRTL_TLS_GetInfo
 0001:000BE368  __isDSTx
 0001:000BE368  C3379_0
 0001:000BE4F4  ___isDST_hook
 0001:000BE504  __isDST
 0001:000BE53C  __totalsec
 0001:000BE6D4  C3381_2
 0001:000BE6D4  C3381_0
 0001:000BE6DC  __tzsetx
 0001:000BE6DC  C3383_0
 0001:000BE8A4  ____set_tzset_hook
 0001:000BE8B4  __tzset
 0001:000BE8CC  C3385_0
 0001:000BE8CC  _tzset
 0001:000BE8D4  ___org_time
 0001:000BE8D4  C3411_0
 0001:000BE8D4  _time
 0001:000BE924  C3415_0
 0001:000BE924  __InitExceptBlockLDTC
 0001:000BE95D  __ExitExceptBlock
 0001:000BE96B  __ExceptionHandler
 0001:000BE994  C3419_0
 0001:000BEAEB  C3419_4
 0001:000BEE93  C3419_3
 0001:000BEEBF  C3419_5
 0001:000BEEE0  __typeIDname(tpid *)
 0001:000BEF18  __isSameTypeID(tpid *, tpid *)
 0001:000BEFF4  __isCompatTypeID(tpid *, tpid *, int, tpid * *)
 0001:000BF104  __tpdsc__ std::bad_typeid
 0001:000BF15C  __adjustClassAdr(void *, tpid *, tpid *)
 0001:000BF1D8  std::bad_typeid::~bad_typeid()
 0001:000BF218  _InitTermAndUnexPtrs()
 0001:000BF240  C3423_4
 0001:000BF240  C3423_0
 0001:000BF26C  ___call_terminate
 0001:000BF2D8  ___call_unexpected
 0001:000BF310  __ExceptInit
 0001:000BF360  __GetExceptDLLinfoInternal
 0001:000BF388  ___DefHandler
 0001:000BF388  C3425_0
 0001:000BF394  C3429_0
 0001:000BF394  ___raiseDebuggerException
 0001:000BF4A0  __setexc
 0001:000BF4BC  __unsetexc
 0001:000BF4CC  __SetUserHandler
 0001:000BF4E0  __unsetuserhandler
 0001:000BF4EC  C3429_3
 0001:000BF4EC  __init_except
 0001:000BF504  __exit_except
 0001:000BF504  C3429_4
 0001:000BF518  __InitDefaultHander
 0001:000BF52C  __SetExceptionHandler
 0001:000BF52C  C3431_0
 0001:000BF541  __UnsetExceptionHandler
 0001:000BF56D  __UnwindException
 0001:000BF574  C3433_0
 0001:000BF574  jump()
 0001:000BF57A  ___doGlobalUnwind
 0001:000BF58F  invokeHnd()
 0001:000BF596  ___cleanupTObject
 0001:000BF5A8  C3462_0
 0001:000BF5A8  C3462_3
 0001:000C0BEC  ___JumpToCatch__
 0001:000C0BF4  _ThrowExceptionLDTC(void *, void *, void *, void *, unsigned int, unsigned int, unsigned int, unsigned char *, void *)
 0001:000C0C2C  __Global_unwind
 0001:000C0C6C  _CatchCleanup()
 0001:000C0D60  ____ExceptionHandler
 0001:000C11C0  std::bad_exception::bad_exception()
 0001:000C11FC  std::bad_exception::~bad_exception()
 0001:000C1258  __tpdsc__ std::bad_exception
 0001:000C12B4  std::bad_exception::bad_exception(std::bad_exception&)
 0001:000C12EC  __tpdsc__ std::bad_exception *
 0002:00000000  D1_1
 0002:00000058  ___isGUI
 0002:00000090  ___isVCLPackage
 0002:00000091  ___isDLL
 0002:0000009E  ___useDynamicTLS
 0002:0000009F  __TLS_index
 0002:000000A3  __TLS_index4
 0002:000000A7  __hInstance
 0002:000000AC  ___CPPdebugHook
 0002:000000AC  ___CPPdebugHook_segment
 0002:000000B0  __PackageInfoTable
 0002:000000C8  D2_1
 0002:0000E8B8  D27_1
 0002:0000EB54  D29_1
 0002:0000EC70  D31_1
 0002:0000ED30  D35_1
 0002:0001051C  D41_1
 0002:00010564  D43_1
 0002:000106C8  D47_1
 0002:000106EC  _hb_cls_uiArrayClass
 0002:000106EE  _hb_cls_uiBlockClass
 0002:000106F0  _hb_cls_uiCharacterClass
 0002:000106F2  _hb_cls_uiDateClass
 0002:000106F4  _hb_cls_uiTimeFlagClass
 0002:000106F6  _hb_cls_uiLogicalClass
 0002:000106F8  _hb_cls_uiNilClass
 0002:000106FA  _hb_cls_uiNumericClass
 0002:000106FC  _hb_cls_uiPointerClass
 0002:000106FE  _hb_cls_uiHashClass
 0002:00010C88  D51_1
 0002:00010CBC  D59_1
 0002:00010CD8  D61_1
 0002:00010CD8  _hb_errFuncName
 0002:00010ED8  _hb_stack_ptr
 0002:00010ED8  D63_1
 0002:00010EDC  _hb_stack_ready
 0002:00011058  D65_1
 0002:00011074  D69_1
 0002:00011078  D71_1
 0002:000110F0  D73_1
 0002:00011138  D75_1
 0002:00011460  D77_1
 0002:0001146C  _hb_symEval
 0002:00011498  _pHVMFuncService
 0002:0001149C  _hb_vm_bQuitRequest
 0002:000114A0  _hb_vm_sNull
 0002:000114A4  _hb_vm_iTry
 0002:000114A8  _hb_vm_BreakBlock
 0002:00011DA8  D81_1
 0002:00011DDC  D83_1
 0002:00011EA0  D85_1
 0002:00011EA0  _hb_comp_bShortCuts
 0002:00011ECC  D87_1
 0002:00011FF8  D91_1
 0002:00012054  D95_1
 0002:000120F8  D99_1
 0002:00012114  D101_1
 0002:00012120  _hb_hInstance
 0002:00012124  _hb_hPrevInstance
 0002:00012128  _hb_iCmdShow
 0002:0001212C  _s_WinMainParam
 0002:00012234  D105_1
 0002:00012314  D111_1
 0002:00012874  D117_1
 0002:0001287C  D119_1
 0002:00012CB4  D121_1
 0002:00012CF8  D127_1
 0002:00012D08  D133_1
 0002:00012D10  D135_1
 0002:00012D14  D141_1
 0002:00012D20  D147_1
 0002:00012D2C  D149_1
 0002:00012F2C  _hb_uniTbl_437
 0002:000131C4  _hb_cdp_page
 0002:000131DC  D151_1
 0002:000131E4  D155_1
 0002:000131E8  D157_1
 0002:00013228  D161_1
 0002:00013238  D163_1
 0002:00013294  D171_1
 0002:000132A8  D175_1
 0002:000132CC  D183_1
 0002:000132D0  D185_1
 0002:0001331C  D193_1
 0002:00013334  D201_1
 0002:00013338  D205_1
 0002:0001333C  D211_1
 0002:00013358  D219_1
 0002:00013388  D233_1
 0002:000133E8  D243_1
 0002:00013748  D251_1
 0002:00013768  D255_1
 0002:00013934  _hb_gt_szNameDefault
 0002:000139FC  D257_1
 0002:00013A20  D269_1
 0002:00013A24  D275_1
 0002:00013A28  D279_1
 0002:00013A3C  _hb_vm_bCollectGarbage
 0002:00013A40  D281_1
 0002:00013A4C  D289_1
 0002:00013AAC  D291_1
 0002:00013AB4  D293_1
 0002:00013AB8  D297_1
 0002:00013C0C  D303_1
 0002:00013C14  D317_1
 0002:00013C4C  D329_1
 0002:00013C50  D331_1
 0002:00013C54  D333_1
 0002:00013C58  D335_1
 0002:00013D3C  D345_1
 0002:00013D48  D347_1
 0002:00013D50  D349_1
 0002:00013D5C  D359_1
 0002:00013D64  D367_1
 0002:00013E38  D369_1
 0002:00013E3C  D383_1
 0002:00013E44  D385_1
 0002:00013E48  D387_1
 0002:00013E4C  D391_1
 0002:00013E58  D393_1
 0002:00013E5C  D401_1
 0002:00013E68  D403_1
 0002:00013E74  D405_1
 0002:00013E78  D407_1
 0002:00013E80  D411_1
 0002:00013F40  D413_1
 0002:00013F70  D415_1
 0002:000140E0  D417_1
 0002:000140F0  D421_1
 0002:000140F8  D427_1
 0002:00014104  D429_1
 0002:00014124  D431_1
 0002:0001412C  D433_1
 0002:00014134  D435_1
 0002:00014138  D441_1
 0002:000145FC  D455_1
 0002:00014CA8  D457_1
 0002:00016334  D477_1
 0002:00018A04  D481_1
 0002:00018B10  D483_1
 0002:00019908  D499_1
 0002:000199E4  D503_1
 0002:0001A5BC  D505_1
 0002:0001B5D4  D537_1
 0002:000259AC  D539_1
 0002:00027128  D545_1
 0002:0002D8FC  D547_1
 0002:0002DC7C  D549_1
 0002:0003180C  D555_1
 0002:000323E0  D559_1
 0002:00032874  D567_1
 0002:00033FF4  D623_1
 0002:000360F8  D625_1
 0002:00036138  D627_1
 0002:00036138  _hb_comp_ExprTable
 0002:000362A8  D631_1
 0002:000362E4  _yytext
 0002:00036FC0  D647_1
 0002:00036FC8  D649_1
 0002:00037008  D655_1
 0002:00037008  _hb_szAscii
 0002:0003769C  D657_1
 0002:000376C8  D659_1
 0002:000376C8  _hb_tr_file_
 0002:000376CC  _hb_tr_line_
 0002:000376D0  _hb_tr_level_
 0002:00037788  D661_1
 0002:000388A0  D663_1
 0002:00038A5C  D667_1
 0002:00038CB8  D669_1
 0002:00038D4C  D695_1
 0002:000396EC  D787_1
 0002:00039704  D805_1
 0002:000398E4  D807_1
 0002:00039918  D809_1
 0002:00039948  D811_1
 0002:00039BE8  D857_1
 0002:00039ECC  D861_1
 0002:00039F40  D863_1
 0002:0003A3E0  D869_1
 0002:0003A660  __pcre_default_tables
 0002:0003A660  D899_0
 0002:0003AAA0  D901_1
 0002:0003B9F8  D907_1
 0002:0003BA04  D913_0
 0002:0003BA04  _pcre_malloc
 0002:0003BA08  _pcre_free
 0002:0003BA0C  _pcre_stack_malloc
 0002:0003BA10  _pcre_stack_free
 0002:0003BA14  _pcre_callout
 0002:0003BA18  __pcre_hspace_list
 0002:0003BA18  D925_0
 0002:0003BA68  __pcre_vspace_list
 0002:0003BA88  __pcre_utf8_table1
 0002:0003BAA0  __pcre_utf8_table1_size
 0002:0003BAA4  __pcre_utf8_table2
 0002:0003BABC  __pcre_utf8_table3
 0002:0003BAD4  __pcre_ucp_gentype
 0002:0003BB4C  __pcre_ucp_gbtable
 0002:0003BB80  __pcre_utt
 0002:0003BEE8  __pcre_utt_size
 0002:0003BEEC  __pcre_OP_lengths
 0002:0003BF88  __pcre_utf8_table4
 0002:0003BFC8  __pcre_utt_names
 0002:0003C3DC  D929_1
 0002:0003C400  D935_1
 0002:0003C6D4  D1475_1
 0002:0003C6E4  D1481_1
 0002:0003C6F4  D1489_1
 0002:0003C6FC  D1493_1
 0002:0003C700  __thrwl__ std::exception::~exception()
 0002:0003C704  __ectbl__ std::exception::~exception()
 0002:0003C710  @std@exception@3
 0002:0003C724  __thrwl__ std::exception::exception()
 0002:0003C728  __odtbl__ std::exception::exception()
 0002:0003C738  __ectbl__ std::exception::exception()
 0002:0003C750  __thrwl__ std::bad_cast::~bad_cast()
 0002:0003C754  __ectbl__ std::bad_cast::~bad_cast()
 0002:0003C760  @std@bad_cast@3
 0002:0003C774  D1684_1
 0002:0003C884  D1696_1
 0002:0003C888  __heap_redirector
 0002:0003C8A8  __stkchk
 0002:0003C8A8  D1710_0
 0002:0003C8AC  D1730_1
 0002:0003C8AC  __FastMM_IsMultiThread
 0002:0003C8AD  __FastMM_ReportMemoryLeaksOnShutdown
 0002:0003C8AE  __FastMM_NeverSleepOnMMThreadContention
 0002:0003C8E0  __FastMM_MemoryManager
 0002:0003C8F8  __FastMM_SmallBlockTypes
 0002:0003CFD8  __FastMM_MediumBlocksLocked
 0002:0003D060  D1841_1
 0002:0003D074  D2001_1
 0002:0003D080  D2021_1
 0002:0003D080  __cfinfo_get
 0002:0003D084  D2053_1
 0002:0003D084  __notUmask
 0002:0003D088  D2073_0
 0002:0003D088  __fileinfo
 0002:0003D08C  __streams
 0002:0003D08C  D2131_0
 0002:0003D53C  D2133_0
 0002:0003D53C  __nfile
 0002:0003D540  __openfd
 0002:0003D608  __fmode
 0002:0003D608  D2141_0
 0002:0003D60C  D2143_1
 0002:0003D60C  __fmodeptr
 0002:0003D610  D2223_1
 0002:0003D610  __dosErrorToSV
 0002:0003D73C  D2243_1
 0002:0003D748  __sys_errlist
 0002:0003D748  D2249_1
 0002:0003D810  __sys_nerr
 0002:0003DBDC  D2378_1
 0002:0003DC54  D2536_0
 0002:0003DC54  __chartype
 0002:0003DE58  D2542_0
 0002:0003DE58  __lower
 0002:0003DF58  D2546_0
 0002:0003DF58  __upper
 0002:0003E058  _CMonetary
 0002:0003E058  D2564_0
 0002:0003E08C  _CNumeric
 0002:0003E0A2  _CTimeDate
 0002:0003E164  _CLOCALE
 0002:0003E190  ___locale
 0002:0003E2B4  D2696_1
 0002:0003E2C4  _e0to7
 0002:0003E2C4  D2702_1
 0002:0003E314  _e8
 0002:0003E320  _e16
 0002:0003E32A  _e32
 0002:0003E334  _e64
 0002:0003E33E  _e128
 0002:0003E348  _e256
 0002:0003E352  _e512
 0002:0003E35C  _e1024
 0002:0003E366  _e2048
 0002:0003E370  _e4096
 0002:0003E37A  _eINF
 0002:0003E384  __realcvtptr
 0002:0003E384  D2757_1
 0002:0003E388  __nextrealptr
 0002:0003E38C  __scantodptr
 0002:0003E390  __scanrsltptr
 0002:0003E3EC  __realcvtwptr
 0002:0003E3EC  D2759_1
 0002:0003E3F0  __nextrealwptr
 0002:0003E3F4  __scanwtodptr
 0002:0003E3F8  __scanwrsltptr
 0002:0003E454  D2761_0
 0002:0003E454  __default87
 0002:0003E458  D2767_1
 0002:0003E464  D2775_1
 0002:0003E478  D2777_1
 0002:0003E490  __huge_flt
 0002:0003E490  D2815_0
 0002:0003E494  __huge_dble
 0002:0003E49C  __huge_ldble
 0002:0003E4A6  __max_flt
 0002:0003E4AA  __max_dble
 0002:0003E4B2  __max_ldble
 0002:0003E4BC  __indefinite
 0002:0003E4C0  __tiny_ldble
 0002:0003E4CC  ___ieee_64_p_inf
 0002:0003E4D4  ___ieee_64_n_inf
 0002:0003E4DC  ___ieee_64_p_nanq
 0002:0003E4E4  ___ieee_64_n_nanq
 0002:0003E4EC  ___ieee_64_p_nans
 0002:0003E4F4  ___ieee_64_n_nans
 0002:0003E4FC  ___ieee_64_p_zero
 0002:0003E504  ___ieee_64_n_zero
 0002:0003E50C  D2825_0
 0002:0003E50C  __turboFloat
 0002:0003E510  __floatconvert
 0002:0003E514  D2843_1
 0002:0003E520  D2867_1
 0002:0003E520  __pmatherr
 0002:0003E524  __pmatherrl
 0002:0003E528  __mathwhy
 0002:0003E528  D2871_0
 0002:0003E56C  D2881_1
 0002:0003E588  D2893_1
 0002:0003E590  D2895_1
 0002:0003E5A4  D2897_1
 0002:0003E5CC  D2904_1
 0002:0003E5F4  D2906_1
 0002:0003E61C  D2916_1
 0002:0003E62C  __kalpha
 0002:0003E62C  D2974_1
 0002:0003E62E  __kpunct
 0002:0003E674  D3114_1
 0002:0003E698  D3132_1
 0002:0003E6BC  D3134_1
 0002:0003E6BC  _errno
 0002:0003E6C0  D3136_1
 0002:0003E6C0  __messagefunc
 0002:0003E6C4  __messagefile
 0002:0003E6D0  __ectbl__ _internal_dbk_fcall_wrapper()
 0002:0003E6E8  D3167_1
 0002:0003E724  D3205_1
 0002:0003E724  __exitbuf
 0002:0003E728  __exitfopen
 0002:0003E72C  __exitopen
 0002:0003E730  D3229_0
 0002:0003E730  __setargv_ptr
 0002:0003E734  __exitargv_ptr
 0002:0003E738  D3231_0
 0002:0003E738  __wsetargv_ptr
 0002:0003E73C  __wexitargv_ptr
 0002:0003E740  D3233_1
 0002:0003E740  __setargv__
 0002:0003E794  D3235_1
 0002:0003E794  __cmdline_escapes
 0002:0003E7BC  D3237_1
 0002:0003E7E0  __argv_expand_ptr
 0002:0003E7E0  D3290_0
 0002:0003E7E4  D3292_0
 0002:0003E7E4  __wargv_expand_ptr
 0002:0003E7E8  D3294_1
 0002:0003E7E8  __argv0
 0002:0003E808  __setenvp__
 0002:0003E808  D3306_1
 0002:0003E85C  D3320_1
 0002:0003E8BC  D3334_0
 0002:0003E8BC  __isWindows
 0002:0003E8C0  D3335_1
 0002:0003E8C4  __SWeekday
 0002:0003E8C4  D3375_0
 0002:0003E8E0  __LWeekday
 0002:0003E8FC  __SMonth
 0002:0003E92C  __LMonth
 0002:0003E95C  __AmPm
 0002:0003E964  __Days
 0002:0003E970  __YDays
 0002:0003EA88  D3379_1
 0002:0003EA88  __PREFER_END_STANDARD_TIME
 0002:0003EA89  __PREFER_START_DAYLIGHT_TIME
 0002:0003EA90  D3381_1
 0002:0003EA90  __timezone
 0002:0003EA94  __daylight
 0002:0003EA98  D3383_1
 0002:0003EA98  __tzname
 0002:0003EAAC  D3417_0
 0002:0003EAAC  ___xxPersonality
 0002:0003EAB0  D3419_1
 0002:0003EDEC  __thrwl__ std::bad_typeid::~bad_typeid()
 0002:0003EDF0  __ectbl__ std::bad_typeid::~bad_typeid()
 0002:0003EDFC  @std@bad_typeid@3
 0002:0003EE10  D3421_1
 0002:0003EE10  ___terminatePTR
 0002:0003EE14  ___unexpectdPTR
 0002:0003EE18  ___CPPexceptionList
 0002:0003EE18  D3423_1
 0002:0003EE1C  ___exceptFlags
 0002:0003EE20  ___throwFileName
 0002:0003EE24  ___throwLineNumber
 0002:0003EE28  ___throwExceptionName
 0002:0003EE2C  ___exceptStaticBuffP
 0002:0003EE30  ___exceptMemAllocVars
 0002:0003EE34  ___ExceptStaticXbuff
 0002:0003EEB4  __ExceptVarsSize
 0002:0003EEC8  __chtbl__ __call_terminate()
 0002:0003EEE8  __ectbl__ __call_terminate()
 0002:0003EF00  D3429_1
 0002:0003EF10  D3462_1
 0002:0003EF10  ___debuggerDisableTerminateCallback
 0002:0003F844  __odtbl__ ___ExceptionHandler(_EXCEPTION_RECORD *, ERRbc *, _CONTEXT *, void *, unsigned long, unsigned long, unsigned long, unsigned long, unsigned long, unsigned long)
 0002:0003F854  __ectbl__ ___ExceptionHandler(_EXCEPTION_RECORD *, ERRbc *, _CONTEXT *, void *, unsigned long, unsigned long, unsigned long, unsigned long, unsigned long, unsigned long)
 0002:0003F878  __thrwl__ std::bad_exception::bad_exception()
 0002:0003F87C  __odtbl__ std::bad_exception::bad_exception()
 0002:0003F88C  __ectbl__ std::bad_exception::bad_exception()
 0002:0003F8A4  __thrwl__ std::bad_exception::~bad_exception()
 0002:0003F8A8  __odtbl__ std::bad_exception::~bad_exception()
 0002:0003F8B8  __ectbl__ std::bad_exception::~bad_exception()
 0002:0003F8D0  __ectbl__ std::bad_exception::bad_exception(std::bad_exception&)
 0002:0003F8DC  @std@bad_exception@3
 0002:0003F8F0  _IID_IPicture
 0003:00000000  B2_2
 0003:00000018  B27_2
 0003:000005F0  B35_2
 0003:00000608  B61_2
 0003:0000060C  _hb_stackST
 0003:0000060C  B63_2
 0003:00001CF0  B69_2
 0003:00001D08  B71_2
 0003:00001EF8  B77_2
 0003:00001F30  B95_2
 0003:00002144  B105_2
 0003:000022D4  B119_2
 0003:000022EC  B121_2
 0003:00002304  B133_2
 0003:00002604  B157_2
 0003:00002608  B171_2
 0003:0000260C  B185_2
 0003:0000268C  B193_2
 0003:000028A4  B217_1
 0003:000028AC  B255_2
 0003:000029B8  B289_2
 0003:00002BB8  B373_1
 0003:00002BBC  B435_2
 0003:00002BC0  B441_2
 0003:00002BD8  B455_2
 0003:00002BF0  B457_2
 0003:00002C08  B477_2
 0003:00002C20  B481_2
 0003:00002C38  B483_2
 0003:00002C50  B499_2
 0003:00002C68  B503_2
 0003:00002C80  B505_2
 0003:00002C98  B537_2
 0003:00002CB0  B539_2
 0003:00002CC8  B545_2
 0003:00002CE0  B547_2
 0003:00002CF8  B549_2
 0003:00002D10  B555_2
 0003:00002D28  B559_2
 0003:00002D40  B567_2
 0003:00002D58  B623_2
 0003:00002DAC  B631_2
 0003:00002E74  _yyleng
 0003:00002E80  _yyin
 0003:0000788C  B811_2
 0003:00007A34  B857_2
 0003:00007A4C  B861_2
 0003:00007A64  B863_2
 0003:00007C10  B869_2
 0003:00007DB8  __bormm_pfn_FreeMem
 0003:00007DB8  B1684_2
 0003:00007DBC  __bormm_pfn_GetMem
 0003:00007DC0  __bormm_pfn_AllocMem
 0003:00007DC4  __bormm_pfn_ReallocMem
 0003:00007DC8  __bormm_pfn_HeapAddRef
 0003:00007DCC  __bormm_pfn_HeapRelease
 0003:00007DD4  __borlndmm_GetMem
 0003:00007DD8  B1730_2
 0003:00007DE9  __FastMM_AllocSize2SmallBlockTypeIndX4
 0003:00007F30  __FastMM_LastSequentiallyFedMediumBlock
 0003:00007F34  __FastMM_MediumSequentialFeedBytesLeft
 0003:00007F38  __FastMM_MediumBlockBinGroupBitmap
 0003:00007F3C  __FastMM_MediumBlockBinBitmaps
 0003:00007FBC  __FastMM_MediumBlockBins
 0003:00009FD4  B1841_2
 0003:0000A078  __pidtab
 0003:0000A078  B2133_1
 0003:0000A140  __handles
 0003:0000A208  __doserrno
 0003:0000A208  B2223_2
 0003:0000A20C  B2227_1
 0003:0000A210  B2243_2
 0003:0000A210  __tmpnum
 0003:0000A220  B2974_2
 0003:0000A220  __mbctype
 0003:0000A324  __mbcsCodePage
 0003:0000A328  B3114_2
 0003:0000A428  B3132_2
 0003:0000A444  B3148_1
 0003:0000A44C  B3163_2
 0003:0000A44C  __dbk_fcall_wrapper_addr
 0003:0000A450  B3169_1
 0003:0000E454  __argv
 0003:0000E454  B3233_2
 0003:0000E460  B3235_2
 0003:0000E464  B3237_2
 0003:0000E468  B3306_2
 0003:0000E468  __environ
 0003:0000E470  __envsize
 0003:0000E474  __env_lock
 0003:0000E478  __C0argc
 0003:0000E478  B3334_1
 0003:0000E47C  __C0argv
 0003:0000E480  __C0environ
 0003:0000E484  __oscmd
 0003:0000E488  __osenv
 0003:0000E48C  __argc
 0003:0000E490  __dll_table
 0003:0000E498  __ExcRegPtr
 0003:0000E49C  __wosenv
 0003:0000E4A0  __woscmd
 0003:0000E4A4  __wC0argv
 0003:0000E4A8  __wC0environ
 0003:0000E4AC  __exe_table
 0003:0000E4B4  __stkbase
 0003:0000E4B8  B3383_2
 0003:0000E4C0  B3419_2
 0003:0000E8C8  B3423_2
 0003:0000E8C8  __DestructorCountPtr
 0003:0000E8D0  __HandlerPtr
 0003:0000E8D0  B3429_2
 0003:0000E8D4  __UserHandlerPtr
 0003:0000E8D8  B3462_2
 0003:0000E8DC  ___pCPPdebugHook
 0003:0000E8E0  _pVCL_add_EH
 0003:0000E8E4  _pVCL_clear_EH
 0003:0000E8E8  _getExceptionObject
 0003:0000E8EC  _raiseExceptObject
 0004:00000000  ___xxInfo
 0004:00000000  T3423_3
